Certificate:
    Data:
        Version: 3 (0x2)
        Serial Number: 4098 (0x1002)
        Signature Algorithm: sha256WithRSAEncryption
        Issuer: C=ES, O=Juan y Fernando SEG, CN=El Root CA
        Validity
            Not Before: Dec 22 22:04:58 2022 GMT
            Not After : Dec 19 22:04:58 2032 GMT
        Subject: C=ES, O=Juan y Fernando SEG, CN=El SUB CA
        Subject Public Key Info:
            Public Key Algorithm: rsaEncryption
                Public-Key: (4096 bit)
                Modulus:
                    00:ac:9e:02:c3:60:f5:50:56:a3:b0:a4:42:ec:00:
                    71:62:af:a2:69:60:0f:b5:ea:45:5f:6c:93:66:4a:
                    91:e8:86:7e:ee:30:5a:60:b3:33:b5:db:72:ea:40:
                    fb:e0:a6:fc:a8:44:15:2f:b5:71:a8:12:28:4f:4f:
                    aa:9d:51:c1:43:19:08:b2:07:0f:c2:5d:61:b6:e9:
                    57:37:76:c7:8c:a2:3d:d1:c7:b8:06:b5:18:fe:63:
                    39:37:56:db:ed:a5:69:fd:8f:53:39:81:0a:18:ed:
                    eb:36:61:1c:79:0a:76:a3:02:79:7b:ad:c1:a8:75:
                    04:c8:2e:51:7c:36:d9:cf:51:46:15:9b:bd:fb:33:
                    43:31:34:ea:17:99:cc:98:64:84:58:90:a3:65:dd:
                    14:a7:f0:96:bf:48:e0:38:f0:57:7b:d4:21:b6:4d:
                    9f:28:e0:9c:3a:3a:3a:09:df:d2:5e:0d:d5:3e:02:
                    c1:8c:c7:37:b3:94:6d:fd:09:af:45:9f:06:8e:20:
                    6f:d2:fa:bf:54:3d:1a:63:00:e7:41:67:71:f0:69:
                    d1:44:8f:b6:d6:3e:46:48:bf:4f:4f:c8:df:6a:6b:
                    d2:83:2e:3c:c4:58:f3:b8:7b:db:6b:45:ac:82:30:
                    20:6b:8e:71:b1:48:67:2b:1d:45:2c:ed:01:8f:d4:
                    5d:db:e4:81:51:7c:87:c0:35:72:b7:14:ab:5a:98:
                    f6:f0:e4:94:b5:a2:c5:73:36:67:4b:e2:76:61:22:
                    7c:9d:5a:45:fa:86:59:a5:ef:f8:e0:7d:1c:83:4a:
                    80:29:65:1a:bc:2a:b3:23:17:2e:bc:e3:ce:6c:43:
                    4f:0f:0d:ce:3c:ee:b0:24:18:1e:28:f9:85:ee:56:
                    48:c6:56:35:d7:bf:a1:20:dc:2d:bc:41:ab:2f:ec:
                    5e:00:ae:c8:d5:fc:51:d6:44:cc:84:80:6b:c0:4f:
                    a7:b6:a8:74:15:4d:40:14:e7:41:69:e7:72:a3:52:
                    5d:aa:13:1d:ed:fe:74:7b:d0:f4:3b:65:25:8a:ab:
                    00:db:0e:32:08:a2:49:46:fe:e3:f6:51:e8:2e:f2:
                    9b:d8:14:35:f2:da:a3:ba:56:73:cd:0f:14:00:f3:
                    15:62:09:d8:b5:ee:c4:17:66:83:fe:28:ab:51:04:
                    80:23:50:a5:f1:ce:55:6f:70:13:da:47:15:f2:13:
                    0d:5f:53:a7:97:34:2e:a6:40:ff:34:2b:b3:0e:07:
                    72:ba:cc:65:ea:57:1f:25:96:29:e4:8e:f5:c9:27:
                    57:67:4f:75:a3:4a:31:2e:55:8c:1f:15:ec:e1:d3:
                    1e:15:62:58:7c:d4:72:df:55:ea:7d:e1:ed:f7:b4:
                    06:c9:19
                Exponent: 65537 (0x10001)
        X509v3 extensions:
            X509v3 Authority Key Identifier: 
                57:65:79:CF:81:15:0A:7A:85:CC:4D:11:EE:5C:20:2A:2E:60:70:98
            X509v3 Basic Constraints: critical
                CA:TRUE, pathlen:0
            X509v3 Extended Key Usage: 
                TLS Web Client Authentication, TLS Web Server Authentication
            X509v3 Key Usage: critical
                Certificate Sign, CRL Sign
            X509v3 Subject Key Identifier: 
                82:7F:B8:11:3A:BD:F5:86:D9:04:EE:DD:E3:A4:AD:F4:AD:C0:C1:EB
    Signature Algorithm: sha256WithRSAEncryption
    Signature Value:
        55:fb:fb:cd:9c:43:a8:58:5d:c4:90:eb:cf:14:07:25:88:97:
        b4:6d:2d:f1:95:91:bf:fc:48:2a:21:51:aa:b7:5a:45:e7:4f:
        5b:9e:84:6e:80:8f:69:0c:80:96:bf:a7:2f:bc:4f:56:d3:d6:
        84:c8:ff:f5:98:8a:92:38:39:5b:d6:d7:c4:d4:6a:e1:dd:f7:
        43:25:49:e4:e0:a7:8d:f1:11:ba:ff:90:89:97:7f:9e:a3:50:
        42:c1:6d:72:7b:0a:7e:33:45:00:af:3f:17:60:5e:6e:c4:fb:
        f1:2c:58:9f:c6:3a:51:82:58:31:02:1d:ff:75:4f:6f:87:55:
        e8:fc:03:42:a1:7d:0e:96:c4:ef:8c:26:b5:d7:63:13:3c:b6:
        3b:d9:c3:5c:78:2e:a4:1f:e1:0a:80:4b:23:a6:ae:1f:69:3f:
        b0:9c:6e:6a:bb:38:ab:80:c4:65:d3:02:ba:ed:f0:ba:a1:51:
        5a:91:84:be:09:73:b8:f7:07:41:3c:d7:5f:1e:b4:3c:a3:3f:
        24:9d:06:30:8e:03:b3:d2:f0:45:04:b4:73:29:a5:17:cb:ef:
        9a:55:94:66:54:fb:5c:9c:89:e4:c2:7e:01:c2:6f:97:bb:16:
        d9:f5:ec:f0:c1:70:b1:30:65:a8:e0:4d:55:4b:e8:d3:04:aa:
        17:88:b3:5e:19:18:d7:e2:ea:22:42:65:2f:5b:f5:77:4f:1c:
        bc:85:65:ce:76:18:06:88:82:ea:d8:5c:27:36:22:0a:be:c2:
        95:5a:dd:cc:a0:94:f1:2d:5f:33:64:88:19:6a:f5:f3:8b:81:
        b2:c1:00:6c:67:6d:ea:24:01:da:30:3d:d4:cf:36:7b:c8:be:
        5f:07:a6:4a:bd:3c:0b:3b:0a:56:47:a3:6e:d8:cc:e6:34:73:
        8b:c9:83:cd:78:31:ab:72:f5:b3:b6:d1:c1:9f:df:73:ab:ce:
        6f:34:ff:18:96:36:c6:a7:1b:1a:2b:fe:d1:db:6f:6a:18:6a:
        ae:b3:f5:f0:3e:4e:cd:be:18:1e:2d:41:4b:13:b5:d7:2b:33:
        2a:79:23:86:48:a9:c3:bc:87:57:ac:96:75:b2:c4:de:6e:8d:
        47:68:cf:64:ae:62:d9:10:45:5a:76:55:28:b5:a2:5a:4e:5f:
        fe:a6:ec:2a:a4:49:82:e3:d2:1e:28:52:7d:d2:7b:27:20:a1:
        5b:17:6b:39:9f:93:7f:1c:d2:bf:d1:91:1b:ca:98:3e:a4:c6:
        e9:fd:3c:4c:27:2d:b2:2a:24:b1:8f:75:f1:72:c3:6e:81:ac:
        8c:36:2b:47:93:ae:a4:6f:07:6d:5c:04:1e:f7:7f:7d:85:f1:
        00:29:07:08:43:ba:ea:56
-----BEGIN CERTIFICATE-----
MIIFgjCCA2qgAwIBAgICEAIwDQYJKoZIhvcNAQELBQAwQDELMAkGA1UEBhMCRVMx
HDAaBgNVBAoME0p1YW4geSBGZXJuYW5kbyBTRUcxEzARBgNVBAMMCkVsIFJvb3Qg
Q0EwHhcNMjIxMjIyMjIwNDU4WhcNMzIxMjE5MjIwNDU4WjA/MQswCQYDVQQGEwJF
UzEcMBoGA1UECgwTSnVhbiB5IEZlcm5hbmRvIFNFRzESMBAGA1UEAwwJRWwgU1VC
IENBMIICIjANBgkqhkiG9w0BAQEFAAOCAg8AMIICCgKCAgEArJ4Cw2D1UFajsKRC
7ABxYq+iaWAPtepFX2yTZkqR6IZ+7jBaYLMztdty6kD74Kb8qEQVL7VxqBIoT0+q
nVHBQxkIsgcPwl1htulXN3bHjKI90ce4BrUY/mM5N1bb7aVp/Y9TOYEKGO3rNmEc
eQp2owJ5e63BqHUEyC5RfDbZz1FGFZu9+zNDMTTqF5nMmGSEWJCjZd0Up/CWv0jg
OPBXe9Qhtk2fKOCcOjo6Cd/SXg3VPgLBjMc3s5Rt/QmvRZ8GjiBv0vq/VD0aYwDn
QWdx8GnRRI+21j5GSL9PT8jfamvSgy48xFjzuHvba0WsgjAga45xsUhnKx1FLO0B
j9Rd2+SBUXyHwDVytxSrWpj28OSUtaLFczZnS+J2YSJ8nVpF+oZZpe/44H0cg0qA
KWUavCqzIxcuvOPObENPDw3OPO6wJBgeKPmF7lZIxlY117+hINwtvEGrL+xeAK7I
1fxR1kTMhIBrwE+ntqh0FU1AFOdBaedyo1JdqhMd7f50e9D0O2UliqsA2w4yCKJJ
Rv7j9lHoLvKb2BQ18tqjulZzzQ8UAPMVYgnYte7EF2aD/iirUQSAI1Cl8c5Vb3AT
2kcV8hMNX1OnlzQupkD/NCuzDgdyusxl6lcfJZYp5I71ySdXZ091o0oxLlWMHxXs
4dMeFWJYfNRy31XqfeHt97QGyRkCAwEAAaOBhjCBgzAfBgNVHSMEGDAWgBRXZXnP
gRUKeoXMTRHuXCAqLmBwmDASBgNVHRMBAf8ECDAGAQH/AgEAMB0GA1UdJQQWMBQG
CCsGAQUFBwMCBggrBgEFBQcDATAOBgNVHQ8BAf8EBAMCAQYwHQYDVR0OBBYEFIJ/
uBE6vfWG2QTu3eOkrfStwMHrMA0GCSqGSIb3DQEBCwUAA4ICAQBV+/vNnEOoWF3E
kOvPFAcliJe0bS3xlZG//EgqIVGqt1pF509bnoRugI9pDICWv6cvvE9W09aEyP/1
mIqSODlb1tfE1Grh3fdDJUnk4KeN8RG6/5CJl3+eo1BCwW1yewp+M0UArz8XYF5u
xPvxLFifxjpRglgxAh3/dU9vh1Xo/ANCoX0OlsTvjCa112MTPLY72cNceC6kH+EK
gEsjpq4faT+wnG5quzirgMRl0wK67fC6oVFakYS+CXO49wdBPNdfHrQ8oz8knQYw
jgOz0vBFBLRzKaUXy++aVZRmVPtcnInkwn4Bwm+XuxbZ9ezwwXCxMGWo4E1VS+jT
BKoXiLNeGRjX4uoiQmUvW/V3Txy8hWXOdhgGiILq2FwnNiIKvsKVWt3MoJTxLV8z
ZIgZavXzi4GywQBsZ23qJAHaMD3UzzZ7yL5fB6ZKvTwLOwpWR6Nu2MzmNHOLyYPN
eDGrcvWzttHBn99zq85vNP8YljbGpxsaK/7R229qGGqus/XwPk7NvhgeLUFLE7XX
KzMqeSOGSKnDvIdXrJZ1ssTebo1HaM9krmLZEEVadlUotaJaTl/+puwqpEmC49Ie
KFJ90nsnIKFbF2s5n5N/HNK/0ZEbypg+pMbp/TxMJy2yKiSxj3XxcsNugayMNitH
k66kbwdtXAQe9399hfEAKQcIQ7rqVg==
-----END CERTIFICATE-----
