Certificate:
    Data:
        Version: 3 (0x2)
        Serial Number: 4100 (0x1004)
        Signature Algorithm: sha256WithRSAEncryption
        Issuer: C=ES, O=Juan y Fernando SEG, CN=El Root CA
        Validity
            Not Before: Dec 22 22:20:31 2022 GMT
            Not After : Dec 22 22:20:31 2023 GMT
        Subject: C=ES, O=Juan y Fernando SEG, CN=Cliente-SUB CA
        Subject Public Key Info:
            Public Key Algorithm: rsaEncryption
                Public-Key: (4096 bit)
                Modulus:
                    00:bd:fb:b7:a7:51:f0:3f:43:c9:82:73:bf:15:eb:
                    20:4d:77:11:13:fc:93:2a:94:08:09:ae:df:4f:b3:
                    b8:94:6f:12:73:bf:cb:48:8a:47:c5:ec:ae:09:fb:
                    7f:78:a1:07:ac:4b:f3:0d:68:1a:d5:fb:79:a4:3b:
                    1a:15:aa:02:5b:ee:af:b3:ac:ad:68:06:cd:82:a7:
                    9c:03:7f:ad:e2:dd:98:61:12:de:3f:db:89:be:91:
                    46:25:66:c7:36:5b:b0:56:60:03:44:60:3e:64:02:
                    53:e7:f0:f8:51:2b:d0:da:14:0d:d9:43:44:f5:1e:
                    b2:cd:40:da:d6:61:42:66:2e:c4:d9:5e:83:91:fb:
                    ae:f6:3a:d7:de:81:a2:49:07:71:b8:a7:3a:0f:17:
                    8b:1f:5e:1b:b9:57:98:5f:49:c7:08:67:79:0a:0d:
                    23:65:1e:3c:a9:5b:28:24:a8:31:02:d6:de:6d:51:
                    27:ac:79:a3:1f:32:a3:31:86:c8:bd:8b:d6:c5:7f:
                    59:bb:ec:9b:cd:6b:0c:d4:1a:7a:58:9a:3b:81:58:
                    1b:dc:de:26:7a:6f:78:02:38:4d:ec:c7:18:66:bd:
                    55:f5:15:cf:d4:21:f0:2c:79:af:d6:57:c2:fb:ec:
                    a7:e8:90:ab:68:7b:dc:d0:31:3f:12:64:ab:09:9b:
                    da:fe:e4:93:ba:a2:22:57:13:05:c7:af:f0:55:58:
                    ce:83:f5:c2:7e:6a:cc:5a:f8:db:b3:1a:2e:51:7c:
                    65:ac:f9:5c:e8:f6:da:d3:9a:83:71:99:c3:1d:7f:
                    61:54:17:16:2d:29:6b:7b:2e:a7:00:8d:64:7e:fb:
                    d7:00:fa:4e:52:30:6c:81:07:8a:f7:c9:88:76:f8:
                    1b:20:50:9b:44:e0:1c:c5:e1:f0:a5:39:84:04:69:
                    39:eb:c4:15:9b:a0:01:04:fb:d0:f7:61:26:37:54:
                    aa:c4:66:ee:6d:82:0c:dd:0c:ac:88:17:3a:0a:ae:
                    c5:d1:50:49:71:21:ba:88:ff:7a:7f:81:94:48:ea:
                    a2:d2:47:19:06:67:96:e0:68:7d:ee:7d:d9:d4:f4:
                    bc:c6:f4:a9:89:60:ea:3c:99:c7:da:c0:b6:96:55:
                    1e:fb:f8:28:93:4b:6b:79:fc:df:71:09:f1:6f:c5:
                    c6:27:a9:84:56:b4:44:28:93:a2:7e:87:bb:d0:27:
                    5e:af:bd:3b:e7:ac:50:ca:31:13:b4:41:39:53:7d:
                    1a:2b:0f:7d:85:ab:e0:91:42:48:7a:63:e5:13:1e:
                    46:52:a1:15:00:ee:56:6f:3a:06:9f:b3:28:cd:66:
                    1d:7d:06:09:c6:a9:51:04:bb:0d:8a:82:7d:c6:e5:
                    1b:73:0d
                Exponent: 65537 (0x10001)
        X509v3 extensions:
            X509v3 Authority Key Identifier: 
                57:65:79:CF:81:15:0A:7A:85:CC:4D:11:EE:5C:20:2A:2E:60:70:98
            X509v3 Basic Constraints: critical
                CA:TRUE, pathlen:0
            X509v3 Extended Key Usage: 
                TLS Web Client Authentication, TLS Web Server Authentication
            X509v3 Key Usage: critical
                Certificate Sign, CRL Sign
            X509v3 Subject Key Identifier: 
                BE:DB:E7:40:11:33:AA:18:2E:E8:81:22:98:29:28:BD:7E:21:26:A6
    Signature Algorithm: sha256WithRSAEncryption
    Signature Value:
        3e:75:a7:60:63:50:0a:be:76:b4:f3:f6:1f:3b:0b:26:f7:df:
        79:9e:03:0c:30:9a:f2:1d:21:6a:27:a1:b7:47:b1:c5:4a:89:
        15:b1:3b:ee:4c:32:4c:40:4f:1b:a3:9e:f9:52:51:5a:98:34:
        a9:1e:a1:43:0c:e6:86:e3:ce:57:80:7f:ca:63:98:58:cd:dd:
        ce:62:bc:08:c7:98:8e:2f:a6:a0:37:ef:a2:bb:40:11:84:5d:
        96:0a:20:30:94:77:ca:87:0b:2d:e9:75:f7:2f:d4:e3:a7:01:
        53:76:6e:17:b2:16:9e:9d:81:5c:7b:7a:cb:f2:23:1a:ba:bd:
        66:7f:f6:15:be:31:3f:f9:8e:5a:9c:2f:be:2c:2c:5a:08:cd:
        61:c0:d1:6d:3c:b8:b8:fc:77:41:c9:4b:c1:73:73:1f:64:7d:
        90:6a:91:1b:71:be:af:d5:56:d5:4c:0b:65:75:12:f3:d7:01:
        02:90:44:f9:b4:b1:07:f4:1a:cc:25:e5:11:2c:0b:8e:83:1b:
        6e:be:fa:cc:b0:7c:5a:c2:a4:7c:23:14:2e:0c:ec:03:d2:08:
        1a:67:86:39:14:72:be:ab:cd:83:0b:eb:df:32:65:74:51:13:
        47:da:d4:5d:8e:af:8a:8d:0e:0c:15:8e:db:cc:05:2f:95:e9:
        01:d7:16:d0:dd:db:d5:fe:3d:06:79:c0:d3:b3:9c:8d:43:f9:
        0b:51:77:92:5d:20:00:12:ec:c5:f3:39:32:03:7e:5e:17:ff:
        6a:e9:42:4f:2e:a9:9d:99:b1:9d:5f:c5:32:9d:ac:b9:4a:fa:
        34:89:6d:a2:9a:27:0a:3c:5f:ff:13:f7:5f:8f:58:dc:73:ab:
        ab:3f:44:99:00:fe:25:75:3d:7d:13:77:e3:b7:bc:10:36:26:
        d7:94:6c:8e:d5:a9:72:5a:44:98:b8:7c:ef:2a:2d:60:bd:74:
        57:a9:2e:24:e3:4a:43:b8:93:5a:6f:4b:31:67:4d:cd:c2:5e:
        e7:e1:64:b7:57:27:5a:08:df:b1:4b:08:7e:a7:5a:7d:ca:17:
        d9:c5:40:d5:8f:c1:cb:db:6f:5c:4b:41:51:25:95:db:0f:49:
        d3:fe:f8:79:c8:ee:bd:13:0d:ce:bf:6d:f1:97:e5:ad:bb:64:
        06:ce:9c:45:52:1f:8c:b1:1d:f1:86:93:d6:ef:00:25:36:4b:
        91:9f:bc:c8:7e:80:44:b6:71:2f:9f:eb:21:c2:2c:c4:0a:97:
        91:8e:24:7c:da:4b:c7:34:11:4c:85:7b:e4:39:c1:40:c9:c5:
        b2:5d:06:9e:42:e6:8d:b3:0d:1c:fa:16:8f:8e:e9:56:8e:a9:
        49:1d:43:9b:37:f3:5c:43
-----BEGIN CERTIFICATE-----
MIIFhzCCA2+gAwIBAgICEAQwDQYJKoZIhvcNAQELBQAwQDELMAkGA1UEBhMCRVMx
HDAaBgNVBAoME0p1YW4geSBGZXJuYW5kbyBTRUcxEzARBgNVBAMMCkVsIFJvb3Qg
Q0EwHhcNMjIxMjIyMjIyMDMxWhcNMjMxMjIyMjIyMDMxWjBEMQswCQYDVQQGEwJF
UzEcMBoGA1UECgwTSnVhbiB5IEZlcm5hbmRvIFNFRzEXMBUGA1UEAwwOQ2xpZW50
ZS1TVUIgQ0EwggIiMA0GCSqGSIb3DQEBAQUAA4ICDwAwggIKAoICAQC9+7enUfA/
Q8mCc78V6yBNdxET/JMqlAgJrt9Ps7iUbxJzv8tIikfF7K4J+394oQesS/MNaBrV
+3mkOxoVqgJb7q+zrK1oBs2Cp5wDf63i3ZhhEt4/24m+kUYlZsc2W7BWYANEYD5k
AlPn8PhRK9DaFA3ZQ0T1HrLNQNrWYUJmLsTZXoOR+672OtfegaJJB3G4pzoPF4sf
Xhu5V5hfSccIZ3kKDSNlHjypWygkqDEC1t5tUSeseaMfMqMxhsi9i9bFf1m77JvN
awzUGnpYmjuBWBvc3iZ6b3gCOE3sxxhmvVX1Fc/UIfAsea/WV8L77KfokKtoe9zQ
MT8SZKsJm9r+5JO6oiJXEwXHr/BVWM6D9cJ+asxa+NuzGi5RfGWs+Vzo9trTmoNx
mcMdf2FUFxYtKWt7LqcAjWR++9cA+k5SMGyBB4r3yYh2+BsgUJtE4BzF4fClOYQE
aTnrxBWboAEE+9D3YSY3VKrEZu5tggzdDKyIFzoKrsXRUElxIbqI/3p/gZRI6qLS
RxkGZ5bgaH3ufdnU9LzG9KmJYOo8mcfawLaWVR77+CiTS2t5/N9xCfFvxcYnqYRW
tEQok6J+h7vQJ16vvTvnrFDKMRO0QTlTfRorD32Fq+CRQkh6Y+UTHkZSoRUA7lZv
OgafsyjNZh19BgnGqVEEuw2Kgn3G5RtzDQIDAQABo4GGMIGDMB8GA1UdIwQYMBaA
FFdlec+BFQp6hcxNEe5cICouYHCYMBIGA1UdEwEB/wQIMAYBAf8CAQAwHQYDVR0l
BBYwFAYIKwYBBQUHAwIGCCsGAQUFBwMBMA4GA1UdDwEB/wQEAwIBBjAdBgNVHQ4E
FgQUvtvnQBEzqhgu6IEimCkovX4hJqYwDQYJKoZIhvcNAQELBQADggIBAD51p2Bj
UAq+drTz9h87Cyb333meAwwwmvIdIWonobdHscVKiRWxO+5MMkxATxujnvlSUVqY
NKkeoUMM5objzleAf8pjmFjN3c5ivAjHmI4vpqA376K7QBGEXZYKIDCUd8qHCy3p
dfcv1OOnAVN2bheyFp6dgVx7esvyIxq6vWZ/9hW+MT/5jlqcL74sLFoIzWHA0W08
uLj8d0HJS8Fzcx9kfZBqkRtxvq/VVtVMC2V1EvPXAQKQRPm0sQf0Gswl5REsC46D
G26++sywfFrCpHwjFC4M7APSCBpnhjkUcr6rzYML698yZXRRE0fa1F2Or4qNDgwV
jtvMBS+V6QHXFtDd29X+PQZ5wNOznI1D+QtRd5JdIAAS7MXzOTIDfl4X/2rpQk8u
qZ2ZsZ1fxTKdrLlK+jSJbaKaJwo8X/8T91+PWNxzq6s/RJkA/iV1PX0Td+O3vBA2
JteUbI7VqXJaRJi4fO8qLWC9dFepLiTjSkO4k1pvSzFnTc3CXufhZLdXJ1oI37FL
CH6nWn3KF9nFQNWPwcvbb1xLQVElldsPSdP++HnI7r0TDc6/bfGX5a27ZAbOnEVS
H4yxHfGGk9bvACU2S5GfvMh+gES2cS+f6yHCLMQKl5GOJHzaS8c0EUyFe+Q5wUDJ
xbJdBp5C5o2zDRz6Fo+O6VaOqUkdQ5s381xD
-----END CERTIFICATE-----
