Certificate:
    Data:
        Version: 3 (0x2)
        Serial Number: 4101 (0x1005)
        Signature Algorithm: sha256WithRSAEncryption
        Issuer: C=ES, O=Juan y Fernando SEG, CN=El Root CA
        Validity
            Not Before: Dec 22 22:22:07 2022 GMT
            Not After : Dec 22 22:22:07 2023 GMT
        Subject: C=ES, O=Juan y Fernando SEG, CN=Servidor-SUB CA
        Subject Public Key Info:
            Public Key Algorithm: rsaEncryption
                Public-Key: (4096 bit)
                Modulus:
                    00:d7:a0:30:61:5b:0b:a2:74:e5:28:4e:80:5d:cd:
                    97:c3:11:23:df:1a:4b:a0:74:1a:65:bd:2c:2e:bd:
                    ab:c9:84:29:13:90:45:1d:1b:c4:7b:8d:b6:7a:59:
                    94:7f:4a:12:36:f6:57:4b:4e:4a:a9:0e:f2:ff:6e:
                    0d:02:0a:04:26:f6:d1:06:d9:c1:b6:af:32:76:1b:
                    00:44:9b:01:13:a5:3a:da:54:9a:1b:55:29:4b:c2:
                    4f:32:8f:a9:bf:d7:39:f1:c7:45:fa:82:e3:2b:a3:
                    9b:76:1c:3e:19:1f:5f:e5:ff:a0:b8:4f:e4:00:5e:
                    e5:85:72:d9:b0:2e:a7:80:87:eb:e3:ac:ee:98:11:
                    b1:0a:48:c6:8e:fc:63:b2:5c:d2:c6:09:a5:7a:ee:
                    fe:9b:01:66:db:02:2a:ea:8f:88:3e:7a:91:e6:d1:
                    36:46:82:21:fa:e5:9a:f8:9d:ec:71:1e:66:e7:0d:
                    da:1c:61:bb:81:9a:0f:e9:e0:f0:bd:1b:a7:5f:47:
                    30:bf:45:94:bd:c5:7f:4e:28:b3:79:37:6f:b3:f1:
                    31:94:ce:0c:37:cf:91:d2:e6:3c:3c:46:a1:7b:03:
                    5c:72:5c:d0:9a:02:1f:31:5d:ff:13:b3:4a:b9:7b:
                    29:e0:b0:c3:54:f0:88:11:c4:18:6e:b6:31:00:58:
                    34:d1:7c:a1:c5:64:67:4f:38:a4:a2:90:9d:77:f8:
                    f7:6f:8e:38:32:fa:9a:02:84:75:de:b4:4c:c1:c3:
                    50:e1:b3:6c:82:7a:b0:23:3c:7c:53:ef:5d:63:b9:
                    5e:5b:cf:5d:e6:7b:d9:23:9a:71:56:df:5c:ae:1f:
                    a8:16:ad:8f:54:ce:70:b6:2e:f7:ae:3d:12:24:41:
                    ed:79:a8:1c:3e:c1:fb:74:1d:2b:27:4f:4a:2c:c2:
                    fa:f1:d4:52:8e:c3:39:84:80:23:46:a9:1e:75:70:
                    6e:ba:d7:4f:c3:91:c5:fd:a7:4e:bf:b4:32:9d:12:
                    d4:b5:b4:96:8f:4f:4d:7f:d3:4c:66:6f:96:57:80:
                    a4:23:5b:9d:e4:ae:99:d4:66:b0:09:c0:d8:cc:0f:
                    e5:33:f9:39:f7:20:8f:09:83:95:0b:60:66:ef:62:
                    27:d5:75:7b:87:5d:73:ec:62:d1:7b:66:1d:f5:42:
                    00:6a:48:54:67:0d:31:4a:e2:be:80:9e:a9:17:3f:
                    eb:f9:ec:64:89:99:7e:57:18:b2:dc:c7:17:db:62:
                    a1:95:c7:70:43:95:75:c6:5e:08:35:2c:2b:da:18:
                    72:dc:bc:16:0a:76:67:55:d9:2d:94:ec:25:6d:be:
                    58:49:3b:a4:a1:29:99:57:db:b6:4a:88:95:b9:5c:
                    c8:bb:39
                Exponent: 65537 (0x10001)
        X509v3 extensions:
            X509v3 Authority Key Identifier: 
                57:65:79:CF:81:15:0A:7A:85:CC:4D:11:EE:5C:20:2A:2E:60:70:98
            X509v3 Basic Constraints: critical
                CA:TRUE, pathlen:0
            X509v3 Extended Key Usage: 
                TLS Web Client Authentication, TLS Web Server Authentication
            X509v3 Key Usage: critical
                Certificate Sign, CRL Sign
            X509v3 Subject Key Identifier: 
                ED:16:C6:9B:67:BC:18:92:BC:A7:06:15:43:81:50:F7:90:BC:07:C2
    Signature Algorithm: sha256WithRSAEncryption
    Signature Value:
        71:b5:fd:b0:2f:42:6c:d7:ad:05:d8:f9:67:3a:e9:ba:59:c1:
        de:c7:05:45:3f:1d:b0:7a:a3:a4:9b:10:70:41:a9:6d:74:be:
        ab:d9:c3:a1:f2:07:91:eb:b2:57:a0:fe:f8:b9:d1:5e:66:fb:
        21:6c:7f:8b:03:da:2d:6a:24:c1:55:89:48:ae:20:3c:82:56:
        1f:c0:b6:d3:05:cc:6c:c3:0a:64:f6:02:19:36:45:49:b1:6a:
        59:0d:cc:41:b8:c2:c3:cd:43:f4:cc:c8:d7:df:3a:44:59:6e:
        1a:af:75:36:af:fe:bc:bb:b8:fa:87:7d:ac:fb:d6:54:d4:a0:
        28:57:1f:76:4b:4a:89:35:32:e6:11:78:56:be:c4:2a:cf:32:
        f3:64:2a:d9:3a:63:54:62:50:19:cd:59:eb:40:e1:68:27:9e:
        93:4d:ca:a4:83:58:d5:2f:8e:53:85:37:e1:60:f7:3a:9a:c6:
        6d:b6:3e:75:72:7c:2f:b1:9a:57:2d:93:f8:c6:36:8c:5e:a5:
        5a:87:30:ec:6d:2b:6f:7b:35:dd:cf:6a:80:6d:9b:48:11:cc:
        88:95:4b:f5:8e:c6:22:60:3c:0d:a0:9b:b6:e7:03:c6:91:55:
        03:8a:77:12:50:a4:38:09:a0:8f:df:10:7b:21:c4:7f:b1:e3:
        cb:a4:00:85:f0:2a:2a:80:fe:2e:2e:5c:ca:ab:ff:fa:a0:6b:
        e2:4d:47:24:7f:41:21:ab:dc:5c:a7:b5:84:ea:40:ab:2b:0f:
        66:19:6d:43:26:cf:02:49:18:33:cf:7f:e1:f0:d7:b2:d9:82:
        61:b6:82:6f:d0:80:8a:c0:fa:bd:07:bc:e6:bb:58:ce:97:49:
        60:55:43:43:7b:02:0a:fc:b5:32:0f:56:3a:e5:e6:aa:25:df:
        d8:2a:c9:8f:ff:dc:e2:84:2c:da:6b:ce:8c:73:43:2e:66:29:
        99:88:23:6d:a3:18:9f:2e:93:32:79:16:7b:d6:cd:bd:8f:bb:
        f5:f7:98:74:d3:2b:7a:00:a9:4a:5f:84:23:22:65:81:12:27:
        57:25:ab:9c:e9:cc:dd:6d:e9:32:27:28:0c:6e:b9:39:32:f6:
        16:f9:9e:47:85:4c:f5:92:3a:c1:74:98:05:12:d3:95:9d:6d:
        58:8e:38:25:1b:9b:df:bd:00:dc:c7:3f:85:ef:25:68:0f:89:
        60:92:6e:bf:41:c7:b1:aa:b1:01:45:a0:53:e5:2e:67:7f:d3:
        c4:98:f5:a9:45:ce:cd:2d:a9:14:ea:60:4e:1a:9c:4f:1d:4e:
        50:c0:6c:c4:a1:31:69:5a:3e:8a:74:c7:d1:e6:a9:14:c4:e5:
        82:bd:c9:51:4e:aa:47:bf
-----BEGIN CERTIFICATE-----
MIIFiDCCA3CgAwIBAgICEAUwDQYJKoZIhvcNAQELBQAwQDELMAkGA1UEBhMCRVMx
HDAaBgNVBAoME0p1YW4geSBGZXJuYW5kbyBTRUcxEzARBgNVBAMMCkVsIFJvb3Qg
Q0EwHhcNMjIxMjIyMjIyMjA3WhcNMjMxMjIyMjIyMjA3WjBFMQswCQYDVQQGEwJF
UzEcMBoGA1UECgwTSnVhbiB5IEZlcm5hbmRvIFNFRzEYMBYGA1UEAwwPU2Vydmlk
b3ItU1VCIENBMIICIjANBgkqhkiG9w0BAQEFAAOCAg8AMIICCgKCAgEA16AwYVsL
onTlKE6AXc2XwxEj3xpLoHQaZb0sLr2ryYQpE5BFHRvEe422elmUf0oSNvZXS05K
qQ7y/24NAgoEJvbRBtnBtq8ydhsARJsBE6U62lSaG1UpS8JPMo+pv9c58cdF+oLj
K6Obdhw+GR9f5f+guE/kAF7lhXLZsC6ngIfr46zumBGxCkjGjvxjslzSxgmleu7+
mwFm2wIq6o+IPnqR5tE2RoIh+uWa+J3scR5m5w3aHGG7gZoP6eDwvRunX0cwv0WU
vcV/TiizeTdvs/ExlM4MN8+R0uY8PEahewNcclzQmgIfMV3/E7NKuXsp4LDDVPCI
EcQYbrYxAFg00XyhxWRnTzikopCdd/j3b444MvqaAoR13rRMwcNQ4bNsgnqwIzx8
U+9dY7leW89d5nvZI5pxVt9crh+oFq2PVM5wti73rj0SJEHteagcPsH7dB0rJ09K
LML68dRSjsM5hIAjRqkedXBuutdPw5HF/adOv7QynRLUtbSWj09Nf9NMZm+WV4Ck
I1ud5K6Z1GawCcDYzA/lM/k59yCPCYOVC2Bm72In1XV7h11z7GLRe2Yd9UIAakhU
Zw0xSuK+gJ6pFz/r+exkiZl+Vxiy3McX22KhlcdwQ5V1xl4INSwr2hhy3LwWCnZn
VdktlOwlbb5YSTukoSmZV9u2SoiVuVzIuzkCAwEAAaOBhjCBgzAfBgNVHSMEGDAW
gBRXZXnPgRUKeoXMTRHuXCAqLmBwmDASBgNVHRMBAf8ECDAGAQH/AgEAMB0GA1Ud
JQQWMBQGCCsGAQUFBwMCBggrBgEFBQcDATAOBgNVHQ8BAf8EBAMCAQYwHQYDVR0O
BBYEFO0WxptnvBiSvKcGFUOBUPeQvAfCMA0GCSqGSIb3DQEBCwUAA4ICAQBxtf2w
L0Js160F2PlnOum6WcHexwVFPx2weqOkmxBwQaltdL6r2cOh8geR67JXoP74udFe
ZvshbH+LA9otaiTBVYlIriA8glYfwLbTBcxswwpk9gIZNkVJsWpZDcxBuMLDzUP0
zMjX3zpEWW4ar3U2r/68u7j6h32s+9ZU1KAoVx92S0qJNTLmEXhWvsQqzzLzZCrZ
OmNUYlAZzVnrQOFoJ56TTcqkg1jVL45ThTfhYPc6msZttj51cnwvsZpXLZP4xjaM
XqVahzDsbStvezXdz2qAbZtIEcyIlUv1jsYiYDwNoJu25wPGkVUDincSUKQ4CaCP
3xB7IcR/sePLpACF8CoqgP4uLlzKq//6oGviTUckf0Ehq9xcp7WE6kCrKw9mGW1D
Js8CSRgzz3/h8Ney2YJhtoJv0ICKwPq9B7zmu1jOl0lgVUNDewIK/LUyD1Y65eaq
Jd/YKsmP/9zihCzaa86Mc0MuZimZiCNtoxifLpMyeRZ71s29j7v195h00yt6AKlK
X4QjImWBEidXJauc6czdbekyJygMbrk5MvYW+Z5HhUz1kjrBdJgFEtOVnW1Yjjgl
G5vfvQDcxz+F7yVoD4lgkm6/QcexqrEBRaBT5S5nf9PEmPWpRc7NLakU6mBOGpxP
HU5QwGzEoTFpWj6KdMfR5qkUxOWCvclRTqpHvw==
-----END CERTIFICATE-----
