Certificate:
    Data:
        Version: 3 (0x2)
        Serial Number: 4102 (0x1006)
        Signature Algorithm: sha256WithRSAEncryption
        Issuer: C=ES, O=Juan y Fernando SEG, CN=El Root CA
        Validity
            Not Before: Jan  3 23:27:30 2023 GMT
            Not After : Feb  2 23:27:30 2023 GMT
        Subject: C=ES, O=Juan y Fernando SEG, CN=OCSP ROOT RESPONDER
        Subject Public Key Info:
            Public Key Algorithm: rsaEncryption
                Public-Key: (2048 bit)
                Modulus:
                    00:a8:24:71:be:d5:2b:90:34:17:da:ab:ca:43:44:
                    b0:f7:2d:24:87:41:30:93:b0:57:07:d8:55:0d:0a:
                    66:21:9e:ee:f2:33:e5:b9:d9:8b:61:eb:3d:02:b0:
                    49:64:f8:0e:3a:33:83:e4:45:fe:5e:36:ef:10:94:
                    3a:74:88:3c:e7:69:31:f6:fe:1e:b9:74:21:1c:7e:
                    cd:fd:3d:90:df:b0:07:5a:94:9f:2b:2b:3a:95:0e:
                    ef:88:6a:42:84:8a:45:04:01:2a:13:3b:29:69:a0:
                    7d:e8:d8:0a:ec:8e:b9:56:33:04:bd:76:30:ff:3a:
                    6a:df:b0:ec:9a:38:c9:d0:12:a3:55:f7:d4:d8:b8:
                    52:76:a5:a2:4b:36:88:38:88:b8:55:88:54:56:6c:
                    37:4b:a5:1f:62:ab:66:72:51:14:cb:2c:45:3e:25:
                    bf:bf:02:c0:d9:b1:55:ad:86:cc:ef:d1:a4:e1:d5:
                    6a:21:e2:83:f0:2d:6e:c7:42:b6:eb:1c:ff:59:91:
                    f4:66:41:88:13:e4:77:9f:de:1b:7a:d8:b0:fc:b9:
                    12:79:ed:a5:a3:fe:3b:5e:48:30:90:cd:ee:a9:81:
                    c0:97:0f:7b:b0:07:38:e5:7a:37:c0:71:30:6d:e8:
                    6a:5b:26:e0:f4:99:f2:d3:40:11:75:9f:c9:fc:75:
                    bb:e7
                Exponent: 65537 (0x10001)
        X509v3 extensions:
            X509v3 Authority Key Identifier: 
                57:65:79:CF:81:15:0A:7A:85:CC:4D:11:EE:5C:20:2A:2E:60:70:98
            X509v3 Basic Constraints: critical
                CA:FALSE
            X509v3 Extended Key Usage: 
                OCSP Signing
            X509v3 Key Usage: critical
                Digital Signature
            X509v3 Subject Key Identifier: 
                31:2A:27:B9:9E:B2:AF:38:05:C5:E4:68:25:D3:77:F5:99:E9:DA:CC
    Signature Algorithm: sha256WithRSAEncryption
    Signature Value:
        69:a6:81:51:c0:ba:19:39:07:d4:04:41:18:ee:93:e7:45:57:
        d3:15:f8:08:61:33:b4:ac:19:5d:62:32:1b:70:36:56:a9:a9:
        d5:9c:57:13:d7:05:27:23:c1:2c:48:50:de:69:0b:e4:8d:7f:
        00:87:37:41:6d:1d:88:61:6d:fd:b1:66:b1:72:ec:18:73:47:
        cc:6c:a5:fd:5c:35:59:aa:08:5e:8a:9a:dd:b8:4b:5b:5f:0f:
        a8:b3:7d:40:44:ab:e8:23:2b:e7:20:ce:b4:c6:05:99:74:84:
        81:82:54:13:2a:1a:4b:cf:98:84:8c:5b:9c:7f:5b:b4:4a:97:
        97:11:81:06:03:f0:c9:ee:2b:d8:58:2d:19:d5:1e:dd:4c:7d:
        af:6f:cf:46:3f:d8:ab:c1:9f:bd:a2:fe:69:93:3a:ca:b0:81:
        da:7f:ce:15:2f:b7:3f:17:46:48:23:88:08:c2:e1:5a:dd:90:
        04:79:8d:af:ae:33:2e:6c:f4:6b:2a:a3:7b:18:9c:73:dc:ff:
        6b:df:47:44:27:66:45:5c:f5:6e:95:15:ae:0c:e3:9d:16:1b:
        5e:eb:0c:13:76:74:3c:83:5b:c9:49:1b:35:7b:a0:36:67:00:
        e1:3b:5e:99:75:ec:7d:72:cc:05:cd:fb:84:b6:5e:5e:48:96:
        5f:c2:80:3d:3f:4b:10:25:7f:8f:2e:dd:08:14:51:a9:7d:1b:
        52:03:af:7a:95:d6:7e:b1:a4:6c:e1:3a:91:63:06:aa:26:61:
        79:4b:c2:e3:01:55:b6:35:6f:8f:a7:c3:da:1c:9e:01:14:f9:
        59:76:d0:21:57:74:0b:56:27:7a:9b:d0:89:a6:37:a1:e3:77:
        7b:6a:e9:e8:25:08:ae:5a:66:74:54:96:4f:6b:c7:83:89:55:
        0c:86:c0:1a:4f:25:06:fa:3f:02:e6:6b:ad:f4:22:06:66:0f:
        38:59:8d:5a:7c:fd:c3:ca:b2:b0:dc:9f:f9:6c:97:f7:f0:62:
        58:1e:1d:18:46:4b:ae:7d:be:b3:f8:6c:83:64:98:bc:78:a0:
        52:6f:de:34:28:d2:36:74:c8:61:c4:07:f9:b7:4b:85:66:b4:
        a2:ee:15:19:dc:59:e7:b5:9d:1a:e8:4b:96:b5:c8:8d:f6:ca:
        26:ed:a7:c5:ab:40:bc:79:9c:ba:7f:0e:25:76:92:aa:80:a1:
        7b:e1:4c:24:21:33:61:0a:27:0a:6e:dc:d0:aa:24:3d:a0:8e:
        fa:86:ca:27:c0:d1:c8:e3:67:f3:d7:d0:5a:9d:2c:ae:19:0e:
        f7:c1:8e:0f:60:6f:e2:ff:c6:5a:a9:ac:a9:34:42:42:26:ce:
        fc:3b:e7:61:ff:39:b0:b1
-----BEGIN CERTIFICATE-----
MIIEejCCAmKgAwIBAgICEAYwDQYJKoZIhvcNAQELBQAwQDELMAkGA1UEBhMCRVMx
HDAaBgNVBAoME0p1YW4geSBGZXJuYW5kbyBTRUcxEzARBgNVBAMMCkVsIFJvb3Qg
Q0EwHhcNMjMwMTAzMjMyNzMwWhcNMjMwMjAyMjMyNzMwWjBJMQswCQYDVQQGEwJF
UzEcMBoGA1UECgwTSnVhbiB5IEZlcm5hbmRvIFNFRzEcMBoGA1UEAwwTT0NTUCBS
T09UIFJFU1BPTkRFUjCCASIwDQYJKoZIhvcNAQEBBQADggEPADCCAQoCggEBAKgk
cb7VK5A0F9qrykNEsPctJIdBMJOwVwfYVQ0KZiGe7vIz5bnZi2HrPQKwSWT4Djoz
g+RF/l427xCUOnSIPOdpMfb+Hrl0IRx+zf09kN+wB1qUnysrOpUO74hqQoSKRQQB
KhM7KWmgfejYCuyOuVYzBL12MP86at+w7Jo4ydASo1X31Ni4Unaloks2iDiIuFWI
VFZsN0ulH2KrZnJRFMssRT4lv78CwNmxVa2GzO/RpOHVaiHig/AtbsdCtusc/1mR
9GZBiBPkd5/eG3rYsPy5EnntpaP+O15IMJDN7qmBwJcPe7AHOOV6N8BxMG3oalsm
4PSZ8tNAEXWfyfx1u+cCAwEAAaN1MHMwHwYDVR0jBBgwFoAUV2V5z4EVCnqFzE0R
7lwgKi5gcJgwDAYDVR0TAQH/BAIwADATBgNVHSUEDDAKBggrBgEFBQcDCTAOBgNV
HQ8BAf8EBAMCB4AwHQYDVR0OBBYEFDEqJ7mesq84BcXkaCXTd/WZ6drMMA0GCSqG
SIb3DQEBCwUAA4ICAQBppoFRwLoZOQfUBEEY7pPnRVfTFfgIYTO0rBldYjIbcDZW
qanVnFcT1wUnI8EsSFDeaQvkjX8AhzdBbR2IYW39sWaxcuwYc0fMbKX9XDVZqghe
iprduEtbXw+os31ARKvoIyvnIM60xgWZdISBglQTKhpLz5iEjFucf1u0SpeXEYEG
A/DJ7ivYWC0Z1R7dTH2vb89GP9irwZ+9ov5pkzrKsIHaf84VL7c/F0ZII4gIwuFa
3ZAEeY2vrjMubPRrKqN7GJxz3P9r30dEJ2ZFXPVulRWuDOOdFhte6wwTdnQ8g1vJ
SRs1e6A2ZwDhO16Zdex9cswFzfuEtl5eSJZfwoA9P0sQJX+PLt0IFFGpfRtSA696
ldZ+saRs4TqRYwaqJmF5S8LjAVW2NW+Pp8PaHJ4BFPlZdtAhV3QLVid6m9CJpjeh
43d7aunoJQiuWmZ0VJZPa8eDiVUMhsAaTyUG+j8C5mut9CIGZg84WY1afP3DyrKw
3J/5bJf38GJYHh0YRkuufb6z+GyDZJi8eKBSb940KNI2dMhhxAf5t0uFZrSi7hUZ
3FnntZ0a6EuWtciN9som7afFq0C8eZy6fw4ldpKqgKF74UwkITNhCicKbtzQqiQ9
oI76hsonwNHI42fz19BanSyuGQ73wY4PYG/i/8ZaqaypNEJCJs78O+dh/zmwsQ==
-----END CERTIFICATE-----
