Certificate:
    Data:
        Version: 3 (0x2)
        Serial Number: 4105 (0x1009)
        Signature Algorithm: sha256WithRSAEncryption
        Issuer: C=ES, O=Juan y Fernando SEG, CN=El Root CA
        Validity
            Not Before: Jan  5 17:03:58 2023 GMT
            Not After : Jan  2 17:03:58 2033 GMT
        Subject: C=ES, ST=PO, O=GETTSEG2022 FdPR PBC JBS, CN=ServerSimple-Auth
        Subject Public Key Info:
            Public Key Algorithm: rsaEncryption
                Public-Key: (2048 bit)
                Modulus:
                    00:ca:bc:26:e5:16:3b:d4:e6:bd:90:e2:ed:d7:16:
                    34:27:14:d3:31:84:de:15:bb:07:a1:30:88:1c:54:
                    2b:a8:7b:8b:e3:c9:34:15:2d:75:ff:07:68:39:f3:
                    42:6d:03:42:d9:f9:61:88:ba:3e:df:03:fb:f1:02:
                    fb:fa:bf:75:9f:92:8d:ab:88:6a:81:cf:d5:b8:a4:
                    39:dd:26:28:77:e7:a9:8c:97:97:7c:c7:2b:44:f9:
                    4c:a6:ff:7c:a8:d8:21:fd:a1:88:76:50:69:74:55:
                    c8:88:87:29:04:64:37:84:fb:6c:17:96:86:e0:21:
                    0a:8d:95:17:f6:6b:2c:34:68:c0:2b:89:6c:a2:85:
                    c4:65:5c:32:fe:c5:2d:31:7b:f0:d3:cf:f2:68:26:
                    dc:df:f1:7d:a9:37:a7:52:bf:90:fc:d1:ac:18:27:
                    0a:d3:f3:4f:58:55:b5:06:07:de:91:fa:33:e7:d0:
                    bd:ed:ba:2e:b0:75:e2:6e:24:a9:d8:c3:f0:f4:58:
                    73:40:40:14:c4:74:06:1d:8e:99:10:a1:d7:a8:33:
                    b0:0f:b1:00:35:69:1c:4e:9a:33:4a:98:28:9a:c8:
                    83:04:94:72:34:1a:40:70:b5:cb:b6:1a:e0:e5:c3:
                    ff:93:cf:e3:a0:b3:70:c2:e3:6f:a6:8d:de:5f:28:
                    e7:61
                Exponent: 65537 (0x10001)
        X509v3 extensions:
            X509v3 Authority Key Identifier: 
                57:65:79:CF:81:15:0A:7A:85:CC:4D:11:EE:5C:20:2A:2E:60:70:98
            X509v3 Basic Constraints: critical
                CA:FALSE
            X509v3 Extended Key Usage: 
                TLS Web Server Authentication
            X509v3 Subject Key Identifier: 
                B8:9C:DA:AF:4B:20:FE:0A:F9:7E:2D:EB:CC:EC:67:36:AB:9E:A6:96
    Signature Algorithm: sha256WithRSAEncryption
    Signature Value:
        1b:a5:27:cd:ed:81:e8:c5:d6:04:af:d2:7b:d7:56:14:45:7c:
        33:47:58:d6:a4:63:ff:49:a3:56:95:8c:8f:08:36:82:cf:41:
        d5:f9:33:89:dc:f4:19:a0:3b:08:68:7c:55:90:3c:db:7f:bb:
        ba:36:08:bb:52:91:36:83:f6:b5:5a:0a:7b:3a:a0:b1:ab:9b:
        9f:e4:0f:b6:4e:53:23:2c:1b:ea:83:4f:dd:24:64:f3:7f:4c:
        c2:a4:c4:5d:5c:8c:bc:78:3d:1e:0a:bb:05:31:55:85:bf:ff:
        58:22:84:73:58:89:80:17:46:4f:d1:50:bd:09:c6:0a:aa:19:
        37:96:3f:f4:4d:c3:38:5c:b2:5a:df:f3:67:28:fe:08:88:29:
        d3:9e:58:92:ed:10:98:3b:85:0a:46:0a:cf:89:6e:80:eb:07:
        d7:fc:2e:4b:7e:22:0f:06:c7:88:b4:e6:ce:a4:a3:76:31:92:
        ad:9b:9f:1a:9c:ff:09:91:1f:0e:1b:93:04:fb:ee:e5:17:b4:
        26:34:cc:e0:fa:ae:50:e5:8b:a8:58:a7:b4:1f:93:df:47:5b:
        c1:52:9b:2a:77:f0:bd:6f:51:b4:43:b0:15:a5:eb:56:e8:fd:
        60:33:7e:8b:a3:8c:7c:a4:59:09:d7:42:1a:0c:1a:b5:db:73:
        44:56:5e:38:1f:64:d2:ee:c9:10:98:a3:df:9e:d5:21:67:55:
        92:48:6a:8d:9c:68:fb:b7:c3:02:9d:e8:c4:f4:93:d9:4e:9a:
        b3:90:66:47:18:e8:44:bf:c0:16:0c:d0:98:a5:b4:a3:67:36:
        91:3f:32:bc:cf:05:ef:eb:31:b6:e7:67:44:54:b1:64:b6:24:
        07:a5:a0:bb:f9:10:4a:a7:59:64:00:2a:8b:2c:de:d4:7b:22:
        0a:83:bc:5d:11:08:f6:a1:b8:5d:32:71:9f:bf:3c:20:75:ad:
        65:1b:1b:d2:04:ff:0c:b4:b8:14:b1:41:b0:ce:f2:8f:e6:29:
        b4:3c:ca:36:bb:e4:0f:2d:c2:1c:cd:29:14:9e:b3:ba:9a:09:
        ab:14:2b:c0:01:dd:62:ff:19:25:0a:46:41:51:92:27:b8:6c:
        b8:56:21:5b:f2:a5:4a:8a:76:53:91:db:19:5f:4a:b6:3c:f6:
        18:d6:51:91:21:67:c6:94:60:e1:eb:e3:2b:25:02:51:61:15:
        79:23:d0:32:75:ff:5f:1d:f6:39:a8:89:da:80:8d:d4:86:79:
        1c:34:ab:82:02:35:21:b6:d0:82:58:ea:21:05:f7:fb:c8:fe:
        a0:a7:26:71:c5:ef:aa:d9:0a:32:d7:ca:ce:ce:80:8a:9f:c2:
        39:17:ea:d9:0c:0b:ce:55
-----BEGIN CERTIFICATE-----
MIIEejCCAmKgAwIBAgICEAkwDQYJKoZIhvcNAQELBQAwQDELMAkGA1UEBhMCRVMx
HDAaBgNVBAoME0p1YW4geSBGZXJuYW5kbyBTRUcxEzARBgNVBAMMCkVsIFJvb3Qg
Q0EwHhcNMjMwMTA1MTcwMzU4WhcNMzMwMTAyMTcwMzU4WjBZMQswCQYDVQQGEwJF
UzELMAkGA1UECAwCUE8xITAfBgNVBAoMGEdFVFRTRUcyMDIyIEZkUFIgUEJDIEpC
UzEaMBgGA1UEAwwRU2VydmVyU2ltcGxlLUF1dGgwggEiMA0GCSqGSIb3DQEBAQUA
A4IBDwAwggEKAoIBAQDKvCblFjvU5r2Q4u3XFjQnFNMxhN4VuwehMIgcVCuoe4vj
yTQVLXX/B2g580JtA0LZ+WGIuj7fA/vxAvv6v3Wfko2riGqBz9W4pDndJih356mM
l5d8xytE+Uym/3yo2CH9oYh2UGl0VciIhykEZDeE+2wXlobgIQqNlRf2ayw0aMAr
iWyihcRlXDL+xS0xe/DTz/JoJtzf8X2pN6dSv5D80awYJwrT809YVbUGB96R+jPn
0L3tui6wdeJuJKnYw/D0WHNAQBTEdAYdjpkQodeoM7APsQA1aRxOmjNKmCiayIME
lHI0GkBwtcu2GuDlw/+Tz+Ogs3DC42+mjd5fKOdhAgMBAAGjZTBjMB8GA1UdIwQY
MBaAFFdlec+BFQp6hcxNEe5cICouYHCYMAwGA1UdEwEB/wQCMAAwEwYDVR0lBAww
CgYIKwYBBQUHAwEwHQYDVR0OBBYEFLic2q9LIP4K+X4t68zsZzarnqaWMA0GCSqG
SIb3DQEBCwUAA4ICAQAbpSfN7YHoxdYEr9J711YURXwzR1jWpGP/SaNWlYyPCDaC
z0HV+TOJ3PQZoDsIaHxVkDzbf7u6Ngi7UpE2g/a1Wgp7OqCxq5uf5A+2TlMjLBvq
g0/dJGTzf0zCpMRdXIy8eD0eCrsFMVWFv/9YIoRzWImAF0ZP0VC9CcYKqhk3lj/0
TcM4XLJa3/NnKP4IiCnTnliS7RCYO4UKRgrPiW6A6wfX/C5LfiIPBseItObOpKN2
MZKtm58anP8JkR8OG5ME++7lF7QmNMzg+q5Q5YuoWKe0H5PfR1vBUpsqd/C9b1G0
Q7AVpetW6P1gM36Lo4x8pFkJ10IaDBq123NEVl44H2TS7skQmKPfntUhZ1WSSGqN
nGj7t8MCnejE9JPZTpqzkGZHGOhEv8AWDNCYpbSjZzaRPzK8zwXv6zG252dEVLFk
tiQHpaC7+RBKp1lkACqLLN7UeyIKg7xdEQj2obhdMnGfvzwgda1lGxvSBP8MtLgU
sUGwzvKP5im0PMo2u+QPLcIczSkUnrO6mgmrFCvAAd1i/xklCkZBUZInuGy4ViFb
8qVKinZTkdsZX0q2PPYY1lGRIWfGlGDh6+MrJQJRYRV5I9Aydf9fHfY5qInagI3U
hnkcNKuCAjUhttCCWOohBff7yP6gpyZxxe+q2Qoy18rOzoCKn8I5F+rZDAvOVQ==
-----END CERTIFICATE-----
