Certificate:
    Data:
        Version: 3 (0x2)
        Serial Number: 4108 (0x100c)
        Signature Algorithm: sha256WithRSAEncryption
        Issuer: C=ES, O=Juan y Fernando SEG, CN=El Root CA
        Validity
            Not Before: Jan  5 17:31:39 2023 GMT
            Not After : Jan  2 17:31:39 2033 GMT
        Subject: C=ES, ST=PO, O=GETTSEG2022 FdPR PBC JBS, CN=ClienteSimple-Auth
        Subject Public Key Info:
            Public Key Algorithm: rsaEncryption
                Public-Key: (2048 bit)
                Modulus:
                    00:9e:07:7c:df:0e:87:d2:3e:6b:f5:35:d6:a5:c2:
                    09:24:ae:3f:ef:10:58:5f:d2:4d:73:4b:e7:30:7b:
                    b7:51:1a:6d:47:8c:7f:bf:e3:5e:f4:0e:d1:8c:ee:
                    69:50:0c:70:1d:d4:ec:50:b9:cd:a6:1f:f8:7b:3f:
                    40:95:7d:37:ef:64:14:49:fe:61:f7:86:d3:71:bd:
                    1d:33:ac:c8:7c:4b:13:84:f2:4f:8e:6d:55:ad:98:
                    dc:d4:16:d6:b5:4e:1c:f4:40:41:d4:9e:af:7b:b1:
                    c9:42:a1:ea:f4:50:fd:76:00:48:35:2f:6d:14:7d:
                    d6:2b:53:3a:e2:c1:5a:14:68:a0:2a:6a:09:97:d7:
                    97:f7:59:be:5a:01:cf:ea:95:16:be:15:26:95:65:
                    b3:3a:fe:97:18:28:0f:64:c4:5b:ce:47:2c:0f:fd:
                    d9:24:03:32:70:f6:e4:1f:7f:88:9a:3d:49:e5:64:
                    a9:a8:df:13:21:ca:ec:f1:7b:09:e3:6b:3a:15:10:
                    e0:3d:84:98:c1:f9:72:3b:6f:c7:fb:71:c9:8c:fa:
                    e9:7a:fb:77:3a:0c:b8:f3:40:53:0e:89:1b:d6:80:
                    ae:bc:3c:fb:39:a4:bd:04:bf:b2:8e:6a:8f:3e:25:
                    7b:7f:d0:70:70:45:c2:49:a6:0d:2a:54:b7:35:63:
                    7b:a5
                Exponent: 65537 (0x10001)
        X509v3 extensions:
            X509v3 Authority Key Identifier: 
                57:65:79:CF:81:15:0A:7A:85:CC:4D:11:EE:5C:20:2A:2E:60:70:98
            X509v3 Basic Constraints: critical
                CA:FALSE
            X509v3 Extended Key Usage: 
                TLS Web Client Authentication
            X509v3 Subject Key Identifier: 
                69:35:43:0C:4A:92:5E:55:C4:1B:84:41:24:CE:D8:5E:AD:6A:17:83
    Signature Algorithm: sha256WithRSAEncryption
    Signature Value:
        59:5d:74:6b:bf:92:d7:91:c3:4d:76:41:d3:39:c6:f0:c7:f3:
        40:e5:7b:9c:1c:63:f4:8f:de:9b:65:93:fe:aa:4c:a0:49:01:
        d8:76:5f:a2:28:d3:60:d1:cf:00:9e:1b:18:e8:9a:fd:9d:78:
        48:0a:5f:1e:52:46:ff:95:5b:f5:0d:f6:80:74:76:15:32:f5:
        86:84:e8:63:09:1a:41:3b:3e:2c:69:cb:e1:9f:ce:f1:73:5b:
        e6:db:45:bf:1d:11:36:f9:04:4a:58:a8:04:af:34:1d:73:bf:
        1e:bb:88:e4:5d:37:c2:ee:fe:d7:83:3e:7b:45:0a:65:d6:ef:
        29:80:e3:31:c3:53:6f:80:83:95:84:68:7d:0c:96:04:31:11:
        ef:1e:9a:b4:2b:13:74:8b:30:36:50:f6:56:28:96:10:36:7f:
        13:71:6f:33:c9:b3:49:cc:bb:d9:ab:45:82:98:c6:dc:ed:dd:
        8a:67:e1:c7:6a:65:39:ce:80:9c:fc:4d:45:4f:9a:5a:37:48:
        73:f2:93:d8:f8:0c:c6:66:21:fd:29:54:a3:91:36:5c:1c:d2:
        74:cb:0e:8e:ab:bc:49:86:67:96:a7:9b:df:17:ec:90:0d:c2:
        ab:aa:55:70:e4:7a:b2:2a:57:b6:7d:c5:a9:3d:76:02:b6:77:
        67:72:85:0b:ac:09:16:09:b2:66:bb:14:71:a5:7a:ba:e6:a8:
        5c:8f:47:91:aa:3c:76:41:e3:e2:c5:f1:d9:02:02:9f:b3:1b:
        71:05:5f:d0:42:57:01:03:3b:d8:0d:34:9d:6f:87:d5:bc:6f:
        5e:ba:d7:a0:1e:51:9a:50:47:66:20:94:27:24:ef:d8:c7:9c:
        14:5d:31:ed:cf:d9:34:b9:f3:35:b6:4c:b5:7c:45:ad:f0:19:
        81:17:fd:96:fd:99:1b:88:51:00:70:55:07:4e:1a:80:de:61:
        2b:10:ae:8a:0c:35:d2:a1:c7:ca:e3:bb:91:78:6f:bb:60:bc:
        40:9a:5e:bb:d2:93:ed:02:c2:ce:4d:5f:21:74:3b:86:f0:36:
        5c:d0:cb:91:48:e3:66:78:c2:ff:30:26:89:4b:09:ef:35:91:
        7d:8d:8f:1c:46:15:b9:76:c5:90:e4:db:ce:55:17:d3:c3:c7:
        86:cc:79:62:10:87:6c:40:13:bf:32:41:da:0f:83:6c:55:32:
        2c:b5:93:d5:c4:41:c3:b6:df:c0:5d:4c:81:5a:e7:ce:7b:c4:
        44:a7:74:02:ec:c7:88:88:ec:7b:f5:a1:0f:cd:bf:f5:fa:a7:
        78:39:28:b8:eb:a5:29:26:13:7f:14:b4:f2:20:59:bf:3c:4d:
        cb:7e:6d:9a:cb:04:9c:91
-----BEGIN CERTIFICATE-----
MIIEezCCAmOgAwIBAgICEAwwDQYJKoZIhvcNAQELBQAwQDELMAkGA1UEBhMCRVMx
HDAaBgNVBAoME0p1YW4geSBGZXJuYW5kbyBTRUcxEzARBgNVBAMMCkVsIFJvb3Qg
Q0EwHhcNMjMwMTA1MTczMTM5WhcNMzMwMTAyMTczMTM5WjBaMQswCQYDVQQGEwJF
UzELMAkGA1UECAwCUE8xITAfBgNVBAoMGEdFVFRTRUcyMDIyIEZkUFIgUEJDIEpC
UzEbMBkGA1UEAwwSQ2xpZW50ZVNpbXBsZS1BdXRoMIIBIjANBgkqhkiG9w0BAQEF
AAOCAQ8AMIIBCgKCAQEAngd83w6H0j5r9TXWpcIJJK4/7xBYX9JNc0vnMHu3URpt
R4x/v+Ne9A7RjO5pUAxwHdTsULnNph/4ez9AlX0372QUSf5h94bTcb0dM6zIfEsT
hPJPjm1VrZjc1BbWtU4c9EBB1J6ve7HJQqHq9FD9dgBINS9tFH3WK1M64sFaFGig
KmoJl9eX91m+WgHP6pUWvhUmlWWzOv6XGCgPZMRbzkcsD/3ZJAMycPbkH3+Imj1J
5WSpqN8TIcrs8XsJ42s6FRDgPYSYwflyO2/H+3HJjPrpevt3Ogy480BTDokb1oCu
vDz7OaS9BL+yjmqPPiV7f9BwcEXCSaYNKlS3NWN7pQIDAQABo2UwYzAfBgNVHSME
GDAWgBRXZXnPgRUKeoXMTRHuXCAqLmBwmDAMBgNVHRMBAf8EAjAAMBMGA1UdJQQM
MAoGCCsGAQUFBwMCMB0GA1UdDgQWBBRpNUMMSpJeVcQbhEEkztherWoXgzANBgkq
hkiG9w0BAQsFAAOCAgEAWV10a7+S15HDTXZB0znG8MfzQOV7nBxj9I/em2WT/qpM
oEkB2HZfoijTYNHPAJ4bGOia/Z14SApfHlJG/5Vb9Q32gHR2FTL1hoToYwkaQTs+
LGnL4Z/O8XNb5ttFvx0RNvkESlioBK80HXO/HruI5F03wu7+14M+e0UKZdbvKYDj
McNTb4CDlYRofQyWBDER7x6atCsTdIswNlD2ViiWEDZ/E3FvM8mzScy72atFgpjG
3O3dimfhx2plOc6AnPxNRU+aWjdIc/KT2PgMxmYh/SlUo5E2XBzSdMsOjqu8SYZn
lqeb3xfskA3Cq6pVcOR6sipXtn3FqT12ArZ3Z3KFC6wJFgmyZrsUcaV6uuaoXI9H
kao8dkHj4sXx2QICn7MbcQVf0EJXAQM72A00nW+H1bxvXrrXoB5RmlBHZiCUJyTv
2MecFF0x7c/ZNLnzNbZMtXxFrfAZgRf9lv2ZG4hRAHBVB04agN5hKxCuigw10qHH
yuO7kXhvu2C8QJpeu9KT7QLCzk1fIXQ7hvA2XNDLkUjjZnjC/zAmiUsJ7zWRfY2P
HEYVuXbFkOTbzlUX08PHhsx5YhCHbEATvzJB2g+DbFUyLLWT1cRBw7bfwF1MgVrn
znvERKd0AuzHiIjse/WhD82/9fqneDkouOulKSYTfxS08iBZvzxNy35tmssEnJE=
-----END CERTIFICATE-----
