Certificate:
    Data:
        Version: 3 (0x2)
        Serial Number: 4097 (0x1001)
        Signature Algorithm: sha256WithRSAEncryption
        Issuer: C=ES, O=Juan y Fernando SEG, CN=Cliente-SUB CA
        Validity
            Not Before: Dec 22 22:34:47 2022 GMT
            Not After : Dec 22 22:34:47 2023 GMT
        Subject: C=ES, ST=PO, O=Fernando Seguridad, CN=Cliente-Auth
        Subject Public Key Info:
            Public Key Algorithm: rsaEncryption
                Public-Key: (2048 bit)
                Modulus:
                    00:dc:de:95:a3:5d:d1:48:11:44:7a:c0:7b:d4:af:
                    20:1a:47:6a:02:31:a5:5e:e4:28:2a:4d:b3:15:45:
                    67:7d:db:bc:52:d9:a2:06:b7:ff:2c:cf:de:34:80:
                    ae:0c:f7:d3:db:85:18:38:05:6f:ab:b4:01:60:5b:
                    1d:15:53:31:3c:de:4b:af:48:d5:1b:cf:df:7e:31:
                    fd:09:d4:e6:81:b8:d3:7c:22:e7:b6:3c:da:45:3d:
                    51:dd:f8:e5:bd:36:6a:6e:a4:8d:ed:51:ec:09:b2:
                    10:9f:db:bb:be:ca:b8:54:98:ff:4f:6e:48:3f:66:
                    51:d7:16:1c:88:4f:92:ba:30:2b:ac:e6:43:77:3d:
                    26:ec:ea:75:b3:59:2a:6f:ce:c2:a7:7f:b3:69:9d:
                    d2:86:e4:9a:71:32:f1:ca:23:c7:e5:b3:a9:64:d3:
                    6f:dd:df:23:db:4c:8e:36:f5:bf:51:1b:2f:59:c8:
                    ff:ae:c2:7e:1d:50:e2:d5:3a:1b:7b:3e:2b:c9:86:
                    c1:22:2a:24:dd:1b:f2:fb:44:9e:c2:9d:69:df:de:
                    57:4b:60:ae:42:a6:dc:84:74:ad:47:3a:fa:18:56:
                    56:60:16:63:cc:4d:37:ad:a8:3f:55:b6:c2:ec:62:
                    6c:4c:5b:69:6d:d0:29:6b:58:e8:fe:ba:c5:58:61:
                    f2:a1
                Exponent: 65537 (0x10001)
        X509v3 extensions:
            X509v3 Authority Key Identifier: 
                93:70:F2:C7:47:61:00:C5:5B:D4:7A:C4:80:94:E1:87:8B:6E:8F:B1
            X509v3 Basic Constraints: critical
                CA:FALSE
            X509v3 Extended Key Usage: 
                TLS Web Client Authentication
            X509v3 Key Usage: critical
                Digital Signature
            X509v3 Subject Key Identifier: 
                8B:D4:7A:20:D8:B8:1E:55:B9:87:4E:67:7A:80:E4:2C:8B:75:0B:CD
    Signature Algorithm: sha256WithRSAEncryption
    Signature Value:
        5d:de:0a:86:f1:e7:a2:f0:54:22:f1:7d:4c:c6:78:b9:f9:65:
        fe:29:b2:f3:d0:1f:4f:2b:b7:3a:18:8f:89:aa:b4:51:67:01:
        b2:89:9f:0f:26:23:ca:76:ec:98:be:27:19:d7:d6:82:4b:cf:
        9b:66:82:5b:30:a9:f3:94:21:3f:63:e4:d5:1a:9d:3c:9a:e5:
        b8:fc:b6:a0:e6:bc:f9:91:31:21:fa:5f:c4:e3:55:3c:fd:12:
        c7:28:cb:34:73:30:13:31:9d:2f:a8:09:87:0e:97:cc:73:23:
        4d:39:44:2f:85:92:c1:05:da:ea:71:c1:78:d4:af:1e:c3:55:
        89:24:bc:e4:4c:01:99:de:36:50:3e:63:aa:7c:26:e4:6c:fe:
        69:45:cc:36:04:3a:a7:91:dc:f1:66:40:9d:d9:53:8f:dd:a7:
        5f:7d:01:85:c5:fa:5b:05:94:5b:60:b3:31:5b:ef:23:c1:b6:
        bb:71:16:f8:2b:cf:3f:14:21:8f:83:3e:17:73:1e:02:20:ef:
        fc:8b:99:43:18:e5:85:26:eb:43:89:56:f1:53:1d:96:00:df:
        58:47:dc:5b:91:25:cb:2c:d9:36:28:9d:b0:fc:ad:29:b8:d6:
        2d:50:ad:f6:af:6d:19:cb:32:0a:1c:66:5f:00:0b:fe:f3:e8:
        3f:4b:55:49:19:25:e4:91:ef:c6:49:e4:e3:d1:c7:34:9b:9d:
        7f:8d:86:67:02:07:d1:c8:89:ad:a3:53:b2:e1:c0:f2:c4:d7:
        50:91:c1:4d:27:96:23:a2:0e:f2:0d:64:42:2c:b3:c7:3f:d4:
        77:4b:96:7f:cc:bc:9c:87:b8:55:21:5c:61:44:b7:8b:95:12:
        bf:91:65:4c:1f:5f:b1:55:04:b8:92:35:9b:63:88:85:7e:8a:
        14:ce:83:65:33:eb:f8:85:37:c4:ef:b5:72:15:ba:74:49:d2:
        6c:b4:06:ab:32:e7:4d:0b:cb:92:7d:8b:f3:f6:1a:01:2e:15:
        70:04:37:eb:60:40:00:38:5d:8c:8d:7c:11:6a:d1:96:ab:e1:
        9d:35:7e:16:3f:93:2e:e4:5f:5c:b8:8e:6e:3a:ab:a3:a0:b7:
        58:b8:fe:67:c4:a0:f9:5a:8d:f7:6b:f7:82:c2:91:a7:61:b2:
        d7:83:9b:3b:72:95:39:66:04:62:45:63:a7:98:03:cf:42:a3:
        bb:0e:32:34:a8:d1:c6:90:b8:7b:37:2e:ce:7d:d8:1a:1b:48:
        50:e7:12:67:c2:5f:93:9d:81:6a:74:08:ce:ad:5f:77:70:ba:
        74:e2:13:45:69:d6:6a:21:92:eb:45:34:8f:10:e1:da:02:20:
        ce:9c:5d:20:9d:32:9e:e0
-----BEGIN CERTIFICATE-----
MIIEgzCCAmugAwIBAgICEAEwDQYJKoZIhvcNAQELBQAwRDELMAkGA1UEBhMCRVMx
HDAaBgNVBAoME0p1YW4geSBGZXJuYW5kbyBTRUcxFzAVBgNVBAMMDkNsaWVudGUt
U1VCIENBMB4XDTIyMTIyMjIyMzQ0N1oXDTIzMTIyMjIyMzQ0N1owTjELMAkGA1UE
BhMCRVMxCzAJBgNVBAgMAlBPMRswGQYDVQQKDBJGZXJuYW5kbyBTZWd1cmlkYWQx
FTATBgNVBAMMDENsaWVudGUtQXV0aDCCASIwDQYJKoZIhvcNAQEBBQADggEPADCC
AQoCggEBANzelaNd0UgRRHrAe9SvIBpHagIxpV7kKCpNsxVFZ33bvFLZoga3/yzP
3jSArgz309uFGDgFb6u0AWBbHRVTMTzeS69I1RvP334x/QnU5oG403wi57Y82kU9
Ud345b02am6kje1R7AmyEJ/bu77KuFSY/09uSD9mUdcWHIhPkrowK6zmQ3c9Juzq
dbNZKm/Owqd/s2md0obkmnEy8cojx+WzqWTTb93fI9tMjjb1v1EbL1nI/67Cfh1Q
4tU6G3s+K8mGwSIqJN0b8vtEnsKdad/eV0tgrkKm3IR0rUc6+hhWVmAWY8xNN62o
P1W2wuxibExbaW3QKWtY6P66xVhh8qECAwEAAaN1MHMwHwYDVR0jBBgwFoAUk3Dy
x0dhAMVb1HrEgJThh4tuj7EwDAYDVR0TAQH/BAIwADATBgNVHSUEDDAKBggrBgEF
BQcDAjAOBgNVHQ8BAf8EBAMCB4AwHQYDVR0OBBYEFIvUeiDYuB5VuYdOZ3qA5CyL
dQvNMA0GCSqGSIb3DQEBCwUAA4ICAQBd3gqG8eei8FQi8X1Mxni5+WX+KbLz0B9P
K7c6GI+JqrRRZwGyiZ8PJiPKduyYvicZ19aCS8+bZoJbMKnzlCE/Y+TVGp08muW4
/Lag5rz5kTEh+l/E41U8/RLHKMs0czATMZ0vqAmHDpfMcyNNOUQvhZLBBdrqccF4
1K8ew1WJJLzkTAGZ3jZQPmOqfCbkbP5pRcw2BDqnkdzxZkCd2VOP3adffQGFxfpb
BZRbYLMxW+8jwba7cRb4K88/FCGPgz4Xcx4CIO/8i5lDGOWFJutDiVbxUx2WAN9Y
R9xbkSXLLNk2KJ2w/K0puNYtUK32r20ZyzIKHGZfAAv+8+g/S1VJGSXkke/GSeTj
0cc0m51/jYZnAgfRyImto1Oy4cDyxNdQkcFNJ5Yjog7yDWRCLLPHP9R3S5Z/zLyc
h7hVIVxhRLeLlRK/kWVMH1+xVQS4kjWbY4iFfooUzoNlM+v4hTfE77VyFbp0SdJs
tAarMudNC8uSfYvz9hoBLhVwBDfrYEAAOF2MjXwRatGWq+GdNX4WP5Mu5F9cuI5u
OqujoLdYuP5nxKD5Wo33a/eCwpGnYbLXg5s7cpU5ZgRiRWOnmAPPQqO7DjI0qNHG
kLh7Ny7OfdgaG0hQ5xJnwl+TnYFqdAjOrV93cLp04hNFadZqIZLrRTSPEOHaAiDO
nF0gnTKe4A==
-----END CERTIFICATE-----
