Certificate:
    Data:
        Version: 3 (0x2)
        Serial Number: 4098 (0x1002)
        Signature Algorithm: sha256WithRSAEncryption
        Issuer: C=ES, O=Juan y Fernando SEG, CN=Cliente-SUB CA
        Validity
            Not Before: Dec 22 22:35:22 2022 GMT
            Not After : Dec 22 22:35:22 2023 GMT
        Subject: C=ES, ST=PO, O=Fernando Seguridad, CN=Cliente - Encrypt
        Subject Public Key Info:
            Public Key Algorithm: rsaEncryption
                Public-Key: (2048 bit)
                Modulus:
                    00:c6:4f:66:3b:6b:a9:a8:12:ca:82:4d:e7:9e:6e:
                    45:a9:e7:89:9b:f8:ff:1d:ef:ce:6e:1b:0d:c2:30:
                    7a:49:e1:14:e9:de:3a:5d:a2:c1:19:0b:15:47:53:
                    67:fa:e4:d0:5c:03:52:dd:b6:1c:5c:d4:ca:a3:98:
                    58:6a:68:4c:04:ea:d8:3b:21:74:a1:1c:1e:71:3d:
                    74:2f:99:00:15:28:cf:68:e3:09:2c:12:b1:90:bf:
                    e3:02:c4:d5:d9:b0:24:0c:a8:d4:2a:60:76:7e:ae:
                    f1:b9:6e:de:3f:03:67:79:a7:9f:4d:df:19:2a:39:
                    c1:08:1e:12:b4:cb:a6:04:6c:94:de:92:7a:85:de:
                    ae:93:46:a5:c8:7b:5d:a3:fe:9e:c7:6a:f3:89:1d:
                    d4:2f:c4:2a:49:a5:60:33:81:c4:77:ba:df:9d:3b:
                    04:a5:3e:3f:b2:9f:6e:d8:64:46:cc:88:56:a6:79:
                    26:a6:57:5f:72:9f:4b:52:d2:bc:da:be:f6:4c:3b:
                    c4:45:c6:c7:68:d6:da:71:20:20:5f:e7:a8:34:7d:
                    a4:6f:62:db:7e:89:d6:60:68:b4:07:7a:1a:0f:6b:
                    93:78:9e:39:f1:af:8f:1b:f6:f1:8c:45:7b:e2:02:
                    08:35:14:ce:e9:dc:72:a3:4d:e4:27:79:fa:48:83:
                    a4:db
                Exponent: 65537 (0x10001)
        X509v3 extensions:
            X509v3 Authority Key Identifier: 
                93:70:F2:C7:47:61:00:C5:5B:D4:7A:C4:80:94:E1:87:8B:6E:8F:B1
            X509v3 Basic Constraints: critical
                CA:FALSE
            X509v3 Extended Key Usage: 
                TLS Web Client Authentication
            X509v3 Key Usage: critical
                Digital Signature
            X509v3 Subject Key Identifier: 
                5E:7E:05:C9:49:55:57:38:2C:41:A0:21:C3:C5:85:D1:49:F0:8E:65
    Signature Algorithm: sha256WithRSAEncryption
    Signature Value:
        3f:f9:c4:c7:3a:e2:43:ae:4e:a3:1a:3e:a2:44:07:ab:51:2a:
        05:84:3f:60:3e:95:e1:16:47:01:1a:ed:09:76:b8:b4:9d:f6:
        97:5d:bf:68:db:74:58:a3:8f:65:6d:e4:58:c5:e5:cb:d7:c0:
        cc:22:a1:ce:87:d8:91:26:c6:62:ce:3b:72:83:5c:e3:60:9a:
        da:c7:f5:dc:f9:fd:78:73:4a:39:be:4f:d2:7c:d4:c8:5f:f4:
        17:ad:a5:02:10:5f:d7:3a:b9:cd:61:31:20:be:19:d8:07:de:
        12:fe:96:04:3f:98:09:37:5b:65:0b:be:0f:e5:a7:45:20:75:
        1e:78:e4:05:b7:9c:33:95:35:ed:86:f8:52:6d:86:98:2b:41:
        ec:97:58:8f:b0:39:5a:6a:ba:18:24:4b:f5:15:60:29:97:52:
        d8:b5:6b:4b:00:4e:e9:21:80:92:03:c3:23:f9:6c:61:7b:e4:
        6f:0f:9e:0a:4c:b0:6e:01:6b:d2:1b:c7:d5:2b:7b:f7:00:1f:
        b6:a2:5d:87:b1:02:dc:1f:d3:85:a1:66:b4:9e:55:db:af:7c:
        ff:75:9f:b2:fc:cb:a5:d2:5f:20:cf:af:f7:d9:01:d5:ce:bb:
        8c:de:05:4a:ad:f0:35:ca:6a:0e:48:f6:db:b7:7b:6b:17:70:
        b3:78:d7:f9:e1:54:0d:35:23:e4:d8:83:0d:e4:0d:f6:fb:a8:
        92:4d:8b:9b:7d:67:9f:ee:e3:ec:58:4f:d2:68:f8:a0:a4:91:
        46:d7:48:85:f5:0d:32:ad:95:39:c5:99:96:7a:fc:19:77:c4:
        cd:04:00:17:e5:a6:93:15:fa:d6:ac:8e:c2:d1:e4:cc:96:4e:
        15:3d:5c:e3:5f:34:7b:bb:f2:21:94:94:94:5b:4b:a1:3f:30:
        39:82:0d:55:36:d4:30:dd:30:c3:c2:a5:77:98:84:39:cb:14:
        a3:c1:2f:dd:a9:a2:76:2a:81:32:97:2d:28:29:d8:2d:16:52:
        23:d7:4f:7c:a9:ac:a2:27:55:da:c5:ac:6e:18:a8:1b:21:ea:
        65:da:2a:a1:1f:37:4f:cd:e7:c2:12:50:60:55:4b:2b:30:5e:
        42:62:24:55:c7:72:ea:68:02:af:d7:2a:c4:f5:87:aa:14:c5:
        01:0c:fe:be:6c:4b:3c:d9:03:7a:fc:32:6c:32:e4:12:55:b9:
        4b:7c:55:38:65:97:95:bf:ae:7b:80:1a:13:90:5d:84:da:50:
        f8:a0:17:90:ec:af:5e:91:0c:01:d2:ff:d9:92:53:65:56:32:
        f8:cd:4e:b9:fc:f8:56:88:ae:c2:47:7e:49:59:f4:8d:30:68:
        86:f8:b8:60:fd:45:9c:be
-----BEGIN CERTIFICATE-----
MIIEiDCCAnCgAwIBAgICEAIwDQYJKoZIhvcNAQELBQAwRDELMAkGA1UEBhMCRVMx
HDAaBgNVBAoME0p1YW4geSBGZXJuYW5kbyBTRUcxFzAVBgNVBAMMDkNsaWVudGUt
U1VCIENBMB4XDTIyMTIyMjIyMzUyMloXDTIzMTIyMjIyMzUyMlowUzELMAkGA1UE
BhMCRVMxCzAJBgNVBAgMAlBPMRswGQYDVQQKDBJGZXJuYW5kbyBTZWd1cmlkYWQx
GjAYBgNVBAMMEUNsaWVudGUgLSBFbmNyeXB0MIIBIjANBgkqhkiG9w0BAQEFAAOC
AQ8AMIIBCgKCAQEAxk9mO2upqBLKgk3nnm5FqeeJm/j/He/ObhsNwjB6SeEU6d46
XaLBGQsVR1Nn+uTQXANS3bYcXNTKo5hYamhMBOrYOyF0oRwecT10L5kAFSjPaOMJ
LBKxkL/jAsTV2bAkDKjUKmB2fq7xuW7ePwNneaefTd8ZKjnBCB4StMumBGyU3pJ6
hd6uk0alyHtdo/6ex2rziR3UL8QqSaVgM4HEd7rfnTsEpT4/sp9u2GRGzIhWpnkm
pldfcp9LUtK82r72TDvERcbHaNbacSAgX+eoNH2kb2LbfonWYGi0B3oaD2uTeJ45
8a+PG/bxjEV74gIINRTO6dxyo03kJ3n6SIOk2wIDAQABo3UwczAfBgNVHSMEGDAW
gBSTcPLHR2EAxVvUesSAlOGHi26PsTAMBgNVHRMBAf8EAjAAMBMGA1UdJQQMMAoG
CCsGAQUFBwMCMA4GA1UdDwEB/wQEAwIHgDAdBgNVHQ4EFgQUXn4FyUlVVzgsQaAh
w8WF0UnwjmUwDQYJKoZIhvcNAQELBQADggIBAD/5xMc64kOuTqMaPqJEB6tRKgWE
P2A+leEWRwEa7Ql2uLSd9pddv2jbdFijj2Vt5FjF5cvXwMwioc6H2JEmxmLOO3KD
XONgmtrH9dz5/XhzSjm+T9J81Mhf9BetpQIQX9c6uc1hMSC+GdgH3hL+lgQ/mAk3
W2ULvg/lp0UgdR545AW3nDOVNe2G+FJthpgrQeyXWI+wOVpquhgkS/UVYCmXUti1
a0sATukhgJIDwyP5bGF75G8PngpMsG4Ba9Ibx9Ure/cAH7aiXYexAtwf04WhZrSe
VduvfP91n7L8y6XSXyDPr/fZAdXOu4zeBUqt8DXKag5I9tu3e2sXcLN41/nhVA01
I+TYgw3kDfb7qJJNi5t9Z5/u4+xYT9Jo+KCkkUbXSIX1DTKtlTnFmZZ6/Bl3xM0E
ABflppMV+tasjsLR5MyWThU9XONfNHu78iGUlJRbS6E/MDmCDVU21DDdMMPCpXeY
hDnLFKPBL92ponYqgTKXLSgp2C0WUiPXT3yprKInVdrFrG4YqBsh6mXaKqEfN0/N
58ISUGBVSyswXkJiJFXHcupoAq/XKsT1h6oUxQEM/r5sSzzZA3r8Mmwy5BJVuUt8
VThll5W/rnuAGhOQXYTaUPigF5Dsr16RDAHS/9mSU2VWMvjNTrn8+FaIrsJHfklZ
9I0waIb4uGD9RZy+
-----END CERTIFICATE-----
