Certificate:
    Data:
        Version: 3 (0x2)
        Serial Number: 4102 (0x1006)
        Signature Algorithm: sha256WithRSAEncryption
        Issuer: C=ES, O=Juan y Fernando SEG, CN=Servidor-SUB CA
        Validity
            Not Before: Dec 22 22:41:19 2022 GMT
            Not After : Dec 22 22:41:19 2023 GMT
        Subject: C=ES, ST=PO, O=Fernando Seguridad, CN=Servidor-Encrypt
        Subject Public Key Info:
            Public Key Algorithm: rsaEncryption
                Public-Key: (2048 bit)
                Modulus:
                    00:b6:b7:87:ee:5a:9a:6e:14:bb:36:0c:0f:53:41:
                    9c:e9:4b:6a:b3:16:b4:9b:21:2b:6c:38:5b:f5:52:
                    b3:2a:38:d5:43:1f:df:d8:fa:89:d1:e0:db:c3:a0:
                    ef:64:a6:10:cf:7c:df:50:d5:cd:e8:b9:e0:50:c5:
                    3c:6f:ac:e5:fc:06:e1:d7:bf:2d:8c:4d:b4:d5:3a:
                    9d:1a:42:df:ff:18:03:a6:10:4b:bc:31:8c:56:f4:
                    bc:94:2d:75:42:b0:af:7d:0f:3c:95:f1:7e:d7:ae:
                    e2:46:24:72:c4:0d:63:12:4d:73:6c:f8:03:d6:2d:
                    86:f3:68:ef:62:21:be:d7:8f:39:3a:c9:ad:c9:8c:
                    29:7a:44:62:d5:d8:88:97:9b:8c:50:07:9b:d7:ae:
                    e6:9a:22:62:16:39:95:94:8a:ac:70:31:cc:78:19:
                    42:8a:2a:8a:48:8b:40:57:0e:0a:34:60:1f:6e:d6:
                    36:59:91:f7:9d:49:5d:7f:75:8a:cf:1b:bc:f1:ff:
                    9a:e9:eb:11:d4:2e:29:b7:c8:f3:07:89:65:48:0c:
                    36:08:4d:8e:96:69:3e:19:b3:67:7b:12:60:dc:6a:
                    cd:52:1f:5b:66:10:3b:f0:d6:35:b0:9e:82:50:f9:
                    47:37:16:06:9b:6b:11:14:04:d7:0e:22:3c:2c:1b:
                    49:a7
                Exponent: 65537 (0x10001)
        X509v3 extensions:
            X509v3 Authority Key Identifier: 
                ED:16:C6:9B:67:BC:18:92:BC:A7:06:15:43:81:50:F7:90:BC:07:C2
            X509v3 Basic Constraints: critical
                CA:FALSE
            X509v3 Extended Key Usage: 
                TLS Web Client Authentication, TLS Web Server Authentication
            X509v3 Key Usage: critical
                Digital Signature, Key Encipherment
            X509v3 Subject Key Identifier: 
                9F:A9:77:DE:A9:40:69:CB:A3:73:71:DB:71:2C:A7:11:9B:57:44:03
    Signature Algorithm: sha256WithRSAEncryption
    Signature Value:
        3a:3f:63:0a:c4:67:04:aa:66:35:17:a4:b2:6d:c7:b4:ef:ac:
        11:64:9d:04:74:58:b8:a7:cf:29:89:df:1f:bc:99:61:42:42:
        e0:a8:a0:eb:d5:3f:6c:52:7f:70:4d:60:e6:9b:65:e0:c5:e6:
        df:43:dc:df:d7:b2:a3:e9:f9:a1:9d:21:37:79:28:90:fb:d9:
        3b:83:30:c7:08:2b:25:9f:ec:a4:8c:e1:a4:36:cd:fa:1e:5e:
        54:90:b7:2e:41:b6:32:a5:f5:4e:7f:0e:9d:f4:6f:a2:a7:10:
        da:63:1c:c7:34:81:c7:2f:53:c1:7a:0f:de:e1:2a:96:4c:42:
        40:6d:27:48:0b:a0:5a:69:f1:39:c6:d8:96:82:2e:f8:3c:d1:
        02:65:36:c0:dd:1e:f5:97:d1:d2:7c:ad:26:2f:1f:92:7c:6d:
        3e:87:44:66:c1:e3:c2:dd:a8:0f:7c:a9:19:e8:68:de:1a:3d:
        11:01:ac:62:38:a8:97:b6:1b:9d:40:a3:c1:8c:bf:a5:9a:d6:
        fc:a1:5e:cc:a3:cd:cd:f1:a1:0e:35:02:41:2c:1d:1a:3f:3b:
        40:d2:75:ba:c6:48:e8:bc:f6:a6:b8:6c:f7:10:1e:45:2d:07:
        bf:0b:c4:97:99:ba:f5:15:72:77:28:48:1b:4d:86:e6:f4:37:
        97:1c:ef:42:6d:22:00:05:60:c0:03:fd:af:0d:82:c2:26:5b:
        3e:0c:25:8f:1c:c6:97:85:a8:93:a6:b0:7d:2b:3c:34:44:6f:
        6e:66:5c:d1:2e:64:bf:10:54:ed:6e:3f:ab:d8:8c:57:2e:dc:
        5a:2b:cc:88:1f:87:b5:5a:4f:49:ad:89:f2:06:c7:cc:93:5f:
        35:fa:22:0c:3d:a0:95:be:2c:65:70:88:69:cc:03:89:60:32:
        ee:22:0a:51:79:0d:09:82:74:81:02:2d:45:0c:63:4a:8f:5c:
        7c:04:30:ed:62:21:6d:f1:58:4c:0c:97:fe:b6:f3:91:27:99:
        b0:9a:3b:4f:f5:0c:b4:2c:70:31:be:d8:e3:f3:55:a5:6d:59:
        dd:a2:5c:8e:8c:c1:9d:9b:d9:09:da:a2:2f:73:3e:d8:3e:39:
        8f:04:1d:ba:05:37:9e:e2:93:ac:ef:2a:8d:9c:e1:4a:ee:9f:
        09:bb:6a:a8:a3:32:6d:da:29:0b:73:a0:1b:2b:09:1a:ae:49:
        b5:37:95:7d:8a:8f:7b:e7:8b:17:e1:76:7f:72:e8:72:31:b7:
        d8:df:91:c2:ba:28:91:38:eb:a2:62:6b:07:fe:72:f4:db:95:
        0e:ce:47:63:72:f0:f9:48:6d:4e:14:aa:ba:86:e5:9f:3d:5f:
        b5:9d:26:fe:b6:04:c3:3f
-----BEGIN CERTIFICATE-----
MIIEkjCCAnqgAwIBAgICEAYwDQYJKoZIhvcNAQELBQAwRTELMAkGA1UEBhMCRVMx
HDAaBgNVBAoME0p1YW4geSBGZXJuYW5kbyBTRUcxGDAWBgNVBAMMD1NlcnZpZG9y
LVNVQiBDQTAeFw0yMjEyMjIyMjQxMTlaFw0yMzEyMjIyMjQxMTlaMFIxCzAJBgNV
BAYTAkVTMQswCQYDVQQIDAJQTzEbMBkGA1UECgwSRmVybmFuZG8gU2VndXJpZGFk
MRkwFwYDVQQDDBBTZXJ2aWRvci1FbmNyeXB0MIIBIjANBgkqhkiG9w0BAQEFAAOC
AQ8AMIIBCgKCAQEAtreH7lqabhS7NgwPU0Gc6Utqsxa0myErbDhb9VKzKjjVQx/f
2PqJ0eDbw6DvZKYQz3zfUNXN6LngUMU8b6zl/Abh178tjE201TqdGkLf/xgDphBL
vDGMVvS8lC11QrCvfQ88lfF+167iRiRyxA1jEk1zbPgD1i2G82jvYiG+1485Osmt
yYwpekRi1diIl5uMUAeb167mmiJiFjmVlIqscDHMeBlCiiqKSItAVw4KNGAfbtY2
WZH3nUldf3WKzxu88f+a6esR1C4pt8jzB4llSAw2CE2Olmk+GbNnexJg3GrNUh9b
ZhA78NY1sJ6CUPlHNxYGm2sRFATXDiI8LBtJpwIDAQABo38wfTAfBgNVHSMEGDAW
gBTtFsabZ7wYkrynBhVDgVD3kLwHwjAMBgNVHRMBAf8EAjAAMB0GA1UdJQQWMBQG
CCsGAQUFBwMCBggrBgEFBQcDATAOBgNVHQ8BAf8EBAMCBaAwHQYDVR0OBBYEFJ+p
d96pQGnLo3Nx23EspxGbV0QDMA0GCSqGSIb3DQEBCwUAA4ICAQA6P2MKxGcEqmY1
F6Sybce076wRZJ0EdFi4p88pid8fvJlhQkLgqKDr1T9sUn9wTWDmm2XgxebfQ9zf
17Kj6fmhnSE3eSiQ+9k7gzDHCCsln+ykjOGkNs36Hl5UkLcuQbYypfVOfw6d9G+i
pxDaYxzHNIHHL1PBeg/e4SqWTEJAbSdIC6BaafE5xtiWgi74PNECZTbA3R71l9HS
fK0mLx+SfG0+h0RmwePC3agPfKkZ6GjeGj0RAaxiOKiXthudQKPBjL+lmtb8oV7M
o83N8aEONQJBLB0aPztA0nW6xkjovPamuGz3EB5FLQe/C8SXmbr1FXJ3KEgbTYbm
9DeXHO9CbSIABWDAA/2vDYLCJls+DCWPHMaXhaiTprB9Kzw0RG9uZlzRLmS/EFTt
bj+r2IxXLtxaK8yIH4e1Wk9JrYnyBsfMk181+iIMPaCVvixlcIhpzAOJYDLuIgpR
eQ0JgnSBAi1FDGNKj1x8BDDtYiFt8VhMDJf+tvORJ5mwmjtP9Qy0LHAxvtjj81Wl
bVndolyOjMGdm9kJ2qIvcz7YPjmPBB26BTee4pOs7yqNnOFK7p8Ju2qoozJt2ikL
c6AbKwkarkm1N5V9io9754sX4XZ/cuhyMbfY35HCuiiROOuiYmsH/nL025UOzkdj
cvD5SG1OFKq6huWfPV+1nSb+tgTDPw==
-----END CERTIFICATE-----
