Certificate:
    Data:
        Version: 3 (0x2)
        Serial Number: 4103 (0x1007)
        Signature Algorithm: sha256WithRSAEncryption
        Issuer: C=ES, O=Juan y Fernando SEG, CN=Servidor-SUB CA
        Validity
            Not Before: Dec 23 09:05:31 2022 GMT
            Not After : Dec 23 09:05:31 2023 GMT
        Subject: C=ES, ST=PO, O=Fernando Seguridad, CN=Servidor-Auth
        Subject Public Key Info:
            Public Key Algorithm: rsaEncryption
                Public-Key: (2048 bit)
                Modulus:
                    00:a4:92:19:c2:d8:46:3a:aa:15:50:a4:9e:a1:4f:
                    7f:dc:2b:80:00:f5:24:d1:c1:cc:09:eb:06:fe:83:
                    5e:0e:a1:58:dc:fe:e0:b6:f3:15:5f:71:a6:8d:6d:
                    6d:0b:2b:f0:17:53:59:a6:27:d2:4c:83:37:a7:e9:
                    fc:7c:04:16:6b:b2:ea:d7:6e:17:6d:70:35:98:69:
                    cf:0b:6f:49:5c:55:dd:0b:1a:53:18:7d:e7:1a:c9:
                    c0:30:02:aa:b4:94:3e:fe:dd:ba:7f:68:d7:67:97:
                    79:b6:71:ba:99:c2:28:cc:65:8c:fb:cb:25:4f:64:
                    76:78:09:39:97:eb:38:a5:8a:55:97:6d:eb:f5:fe:
                    d9:17:47:c2:de:f8:c1:6e:a4:a6:2f:4d:ad:e7:0f:
                    9e:c7:f6:f0:f8:8a:bc:2f:74:3d:81:f2:d0:26:57:
                    64:15:84:f1:fa:0f:2c:2b:8b:ef:c8:ee:91:f3:92:
                    32:3f:c2:27:92:4b:c7:60:d8:63:fa:ac:33:51:c2:
                    e5:4b:6f:ed:a0:1a:32:88:10:f1:13:9a:40:9e:2c:
                    3a:82:91:fd:93:0b:81:2d:80:c7:79:8b:cc:b4:7c:
                    74:6a:b3:6d:49:1a:85:64:3b:82:ee:30:20:cc:d6:
                    da:55:dc:fd:13:2b:a6:31:12:2e:e2:3f:73:fb:4f:
                    e1:29
                Exponent: 65537 (0x10001)
        X509v3 extensions:
            X509v3 Authority Key Identifier: 
                ED:16:C6:9B:67:BC:18:92:BC:A7:06:15:43:81:50:F7:90:BC:07:C2
            X509v3 Basic Constraints: critical
                CA:FALSE
            X509v3 Extended Key Usage: 
                TLS Web Client Authentication, TLS Web Server Authentication
            X509v3 Key Usage: critical
                Digital Signature, Key Encipherment
            X509v3 Subject Key Identifier: 
                F4:B9:45:B8:C3:96:0B:96:D5:58:86:7B:ED:6A:5F:59:14:9B:E5:DE
    Signature Algorithm: sha256WithRSAEncryption
    Signature Value:
        cb:ca:9a:b6:1d:77:61:80:09:45:fd:7a:16:fe:34:94:8a:be:
        87:18:86:b8:be:80:ce:31:ec:bb:e7:b2:8c:1d:64:9f:2c:d9:
        2b:56:7d:41:48:d1:7a:12:ca:e4:f1:7f:07:8c:40:c8:71:d3:
        38:41:14:d8:4f:34:44:89:64:6c:05:4f:51:28:23:71:f7:c2:
        0d:df:4b:ac:22:94:89:78:df:2d:a7:4b:0e:9e:54:fe:44:82:
        b3:cb:b6:99:ce:9f:6f:a6:3d:04:0c:ed:06:a2:f7:06:34:69:
        0b:d8:27:c7:99:80:64:75:c6:16:d5:62:ff:86:4f:b9:3f:04:
        92:36:69:16:b6:eb:cd:33:87:03:ff:aa:59:41:be:4b:1e:4f:
        d5:6b:c0:de:d9:d5:c0:97:13:1a:a6:ab:2d:9a:ca:fd:71:bb:
        21:ae:be:3e:13:7d:fa:ef:6f:0f:20:48:a7:89:c0:55:15:57:
        a4:76:3c:16:d7:2f:c3:cc:ef:3c:6a:f9:f4:f4:e4:99:5b:4a:
        f3:48:50:54:0d:b9:a7:3f:b5:7f:dd:81:12:1f:9c:b4:40:a7:
        45:17:92:13:bf:e2:5e:3a:db:0e:bc:3a:91:05:d9:59:2c:1b:
        2f:6d:22:17:5c:0a:46:d1:9a:bc:b8:39:9d:4e:69:ef:19:75:
        87:19:d9:2a:f9:b5:63:67:34:50:8d:87:ba:1b:a4:22:73:d7:
        d9:02:8a:12:f0:4c:cf:42:77:95:41:04:48:2f:88:eb:f0:0a:
        90:53:45:1b:9c:23:5f:ce:ba:05:5b:fd:f9:78:23:77:75:44:
        28:97:d9:f1:74:b4:2e:da:88:a4:7d:e3:3b:8d:3c:96:b4:85:
        d3:e2:a8:32:85:94:8f:93:40:62:4d:ac:cb:db:29:b6:1e:43:
        d7:7d:a2:e4:cb:26:ba:5e:2c:4e:73:18:b2:ed:7b:c2:a8:6c:
        40:bb:47:78:ff:94:78:5c:80:48:8f:65:a9:ca:5d:c3:f1:95:
        12:61:3f:fa:8e:57:91:3a:ff:5f:4c:a6:f0:ae:9e:7b:f5:f0:
        98:bc:57:24:5a:0d:b2:ad:2f:1d:f9:9d:33:19:70:07:0e:4b:
        c0:d3:cb:1e:b2:ff:20:80:76:fe:e8:b0:82:6e:8c:0f:58:50:
        c2:d7:63:b6:74:3d:3e:6a:74:6e:ce:fc:5f:53:a1:d2:5f:d6:
        7f:ec:7a:42:f8:20:28:48:6f:fe:05:17:95:a6:7d:d4:c3:5b:
        42:2e:1b:3a:ba:23:c5:24:d3:ce:22:f3:ba:2e:23:6a:a4:11:
        54:3f:56:0f:91:07:34:4a:62:78:f0:7a:14:f3:f4:45:48:b1:
        cc:28:7e:6d:4a:87:96:51
-----BEGIN CERTIFICATE-----
MIIEjzCCAnegAwIBAgICEAcwDQYJKoZIhvcNAQELBQAwRTELMAkGA1UEBhMCRVMx
HDAaBgNVBAoME0p1YW4geSBGZXJuYW5kbyBTRUcxGDAWBgNVBAMMD1NlcnZpZG9y
LVNVQiBDQTAeFw0yMjEyMjMwOTA1MzFaFw0yMzEyMjMwOTA1MzFaME8xCzAJBgNV
BAYTAkVTMQswCQYDVQQIDAJQTzEbMBkGA1UECgwSRmVybmFuZG8gU2VndXJpZGFk
MRYwFAYDVQQDDA1TZXJ2aWRvci1BdXRoMIIBIjANBgkqhkiG9w0BAQEFAAOCAQ8A
MIIBCgKCAQEApJIZwthGOqoVUKSeoU9/3CuAAPUk0cHMCesG/oNeDqFY3P7gtvMV
X3GmjW1tCyvwF1NZpifSTIM3p+n8fAQWa7Lq124XbXA1mGnPC29JXFXdCxpTGH3n
GsnAMAKqtJQ+/t26f2jXZ5d5tnG6mcIozGWM+8slT2R2eAk5l+s4pYpVl23r9f7Z
F0fC3vjBbqSmL02t5w+ex/bw+Iq8L3Q9gfLQJldkFYTx+g8sK4vvyO6R85IyP8In
kkvHYNhj+qwzUcLlS2/toBoyiBDxE5pAniw6gpH9kwuBLYDHeYvMtHx0arNtSRqF
ZDuC7jAgzNbaVdz9EyumMRIu4j9z+0/hKQIDAQABo38wfTAfBgNVHSMEGDAWgBTt
FsabZ7wYkrynBhVDgVD3kLwHwjAMBgNVHRMBAf8EAjAAMB0GA1UdJQQWMBQGCCsG
AQUFBwMCBggrBgEFBQcDATAOBgNVHQ8BAf8EBAMCBaAwHQYDVR0OBBYEFPS5RbjD
lguW1ViGe+1qX1kUm+XeMA0GCSqGSIb3DQEBCwUAA4ICAQDLypq2HXdhgAlF/XoW
/jSUir6HGIa4voDOMey757KMHWSfLNkrVn1BSNF6Esrk8X8HjEDIcdM4QRTYTzRE
iWRsBU9RKCNx98IN30usIpSJeN8tp0sOnlT+RIKzy7aZzp9vpj0EDO0GovcGNGkL
2CfHmYBkdcYW1WL/hk+5PwSSNmkWtuvNM4cD/6pZQb5LHk/Va8De2dXAlxMapqst
msr9cbshrr4+E336728PIEinicBVFVekdjwW1y/DzO88avn09OSZW0rzSFBUDbmn
P7V/3YESH5y0QKdFF5ITv+JeOtsOvDqRBdlZLBsvbSIXXApG0Zq8uDmdTmnvGXWH
Gdkq+bVjZzRQjYe6G6Qic9fZAooS8EzPQneVQQRIL4jr8AqQU0UbnCNfzroFW/35
eCN3dUQol9nxdLQu2oikfeM7jTyWtIXT4qgyhZSPk0BiTazL2ym2HkPXfaLkyya6
XixOcxiy7XvCqGxAu0d4/5R4XIBIj2Wpyl3D8ZUSYT/6jleROv9fTKbwrp579fCY
vFckWg2yrS8d+Z0zGXAHDkvA08sesv8ggHb+6LCCbowPWFDC12O2dD0+anRuzvxf
U6HSX9Z/7HpC+CAoSG/+BReVpn3Uw1tCLhs6uiPFJNPOIvO6LiNqpBFUP1YPkQc0
SmJ48HoU8/RFSLHMKH5tSoeWUQ==
-----END CERTIFICATE-----
