Certificate:
    Data:
        Version: 3 (0x2)
        Serial Number: 4099 (0x1003)
        Signature Algorithm: sha256WithRSAEncryption
        Issuer: C=ES, O=Juan y Fernando SEG, CN=Cliente-SUB CA
        Validity
            Not Before: Dec 22 22:35:42 2022 GMT
            Not After : Dec 22 22:35:42 2023 GMT
        Subject: C=ES, ST=PO, O=Fernando Seguridad, CN=Cliente-Sign
        Subject Public Key Info:
            Public Key Algorithm: rsaEncryption
                Public-Key: (2048 bit)
                Modulus:
                    00:d9:90:c1:55:b9:1b:8a:ae:ee:9a:54:7c:67:a0:
                    ed:e9:f3:8f:6c:c3:ee:8d:25:6f:1e:31:5c:92:44:
                    02:61:f3:c6:10:01:ba:b5:5c:45:66:bb:0a:84:37:
                    8f:9c:32:eb:ca:41:ed:5d:e6:38:3b:ef:43:5b:8c:
                    11:db:d4:57:29:31:93:85:a2:a9:5b:07:b4:4e:cd:
                    6f:95:db:04:75:71:d9:74:8f:ae:ca:96:cf:7d:80:
                    28:60:99:59:eb:02:ea:32:8a:97:3a:fd:5b:35:5c:
                    8f:2c:30:c2:99:80:25:57:07:14:3e:35:e3:2b:e2:
                    d9:c9:c9:38:1d:96:32:6c:f3:51:6b:5d:73:25:db:
                    d4:48:38:2b:e0:68:e3:32:00:8b:d2:0f:cc:71:e4:
                    b5:d6:a0:f0:73:59:c4:7a:fe:7f:b6:93:b2:b6:78:
                    e1:c6:a5:36:9b:98:c3:cc:ea:04:ab:c4:05:3e:df:
                    fb:c8:f2:b8:0f:dd:60:66:25:0b:04:07:39:02:be:
                    44:1e:49:4c:09:2e:98:e3:78:63:ac:24:f0:b9:8d:
                    56:7a:31:44:0a:4e:28:40:3d:6a:54:c0:9c:b9:26:
                    13:a5:07:04:f1:2e:0f:a4:85:04:45:43:07:81:49:
                    21:9e:d0:e7:68:eb:82:d3:84:ac:bb:e5:b9:1a:c0:
                    3d:e1
                Exponent: 65537 (0x10001)
        X509v3 extensions:
            X509v3 Authority Key Identifier: 
                93:70:F2:C7:47:61:00:C5:5B:D4:7A:C4:80:94:E1:87:8B:6E:8F:B1
            X509v3 Basic Constraints: critical
                CA:FALSE
            X509v3 Extended Key Usage: 
                TLS Web Client Authentication
            X509v3 Key Usage: critical
                Digital Signature
            X509v3 Subject Key Identifier: 
                0F:CF:C4:87:B1:49:79:66:3A:DE:99:68:C3:0A:C3:9E:B4:3D:23:91
    Signature Algorithm: sha256WithRSAEncryption
    Signature Value:
        43:6d:14:50:5e:7c:ed:6f:6e:1f:c0:79:a9:b6:23:ea:64:6e:
        0b:ba:5e:2d:a1:74:4a:84:ea:5f:a9:eb:b2:3c:d5:a7:44:3b:
        cf:56:bd:fb:58:93:f8:f8:0d:7e:c4:48:1b:68:5a:e7:92:ea:
        cd:ff:2e:0b:c4:57:63:e4:11:72:42:8c:ed:d6:52:db:10:cd:
        03:25:86:b3:6a:8d:14:af:21:7c:1e:29:93:78:7d:8d:28:f4:
        e4:01:07:35:b1:08:06:98:d9:2e:0f:ba:87:35:dc:83:5c:9e:
        a9:07:f4:c8:01:41:1c:be:81:9b:2b:bd:aa:a3:42:4a:37:d3:
        f2:82:cf:52:ac:fd:09:64:5c:6b:2e:a4:ab:d3:ed:b8:fa:b8:
        36:c8:94:f2:b0:b6:81:18:fa:8a:2f:bf:3f:46:6c:31:10:05:
        a9:2d:ca:53:0e:53:13:2d:4f:13:4c:ba:d1:50:1b:3f:64:cb:
        65:c2:bb:07:af:df:22:12:5e:56:08:a4:ab:98:c4:1c:48:53:
        81:31:fc:d3:b2:11:42:29:da:0d:4f:da:2b:53:59:71:2f:f5:
        d1:4e:02:75:c3:ab:ab:01:97:d4:88:c9:8f:3a:eb:e7:c3:e4:
        0d:a1:9e:4a:64:2e:2a:a7:92:49:bf:86:9a:ee:d4:ab:f6:9d:
        82:6a:8c:23:fd:ce:d0:a9:b9:f5:2e:23:10:0f:54:22:23:11:
        ad:15:27:2f:d3:30:80:c0:96:ec:33:9c:9f:f6:09:05:ec:2f:
        9b:d5:d2:7d:dc:62:35:4a:ed:70:91:26:12:4f:20:cc:1e:0a:
        1a:b3:d7:d8:68:80:dd:24:97:33:e7:d2:5f:a6:b2:36:be:03:
        27:5b:32:9c:59:27:8e:a7:f0:e6:91:b4:27:70:7a:57:22:12:
        3e:e4:84:e3:a7:2c:4d:52:fa:e1:8a:9d:1b:3a:40:a9:e4:2a:
        6a:cf:33:e7:1c:6c:a7:bf:71:3b:fe:a3:e5:f7:94:0f:2d:10:
        dd:43:d5:94:d5:08:e4:4e:45:33:9e:73:ce:f9:34:7b:d8:37:
        82:f9:5e:37:92:84:b6:77:34:e6:43:2f:86:af:d0:82:b3:e3:
        50:89:a7:8c:32:81:1a:cd:4f:af:e6:72:28:53:ae:60:cc:9c:
        d8:48:bd:f1:6a:df:40:2c:fa:3b:20:64:84:3d:dc:34:33:a8:
        8d:d0:e2:a1:97:4d:be:1f:5e:54:ec:0f:d7:bd:22:de:b8:7c:
        4c:03:4f:b7:09:a4:f8:e7:37:6a:86:03:1a:5d:98:6e:e4:1f:
        e8:fd:fc:34:d5:b3:6d:62:ec:1a:e0:91:c3:04:07:0e:99:93:
        2a:53:60:30:44:6a:74:8a
-----BEGIN CERTIFICATE-----
MIIEgzCCAmugAwIBAgICEAMwDQYJKoZIhvcNAQELBQAwRDELMAkGA1UEBhMCRVMx
HDAaBgNVBAoME0p1YW4geSBGZXJuYW5kbyBTRUcxFzAVBgNVBAMMDkNsaWVudGUt
U1VCIENBMB4XDTIyMTIyMjIyMzU0MloXDTIzMTIyMjIyMzU0MlowTjELMAkGA1UE
BhMCRVMxCzAJBgNVBAgMAlBPMRswGQYDVQQKDBJGZXJuYW5kbyBTZWd1cmlkYWQx
FTATBgNVBAMMDENsaWVudGUtU2lnbjCCASIwDQYJKoZIhvcNAQEBBQADggEPADCC
AQoCggEBANmQwVW5G4qu7ppUfGeg7enzj2zD7o0lbx4xXJJEAmHzxhABurVcRWa7
CoQ3j5wy68pB7V3mODvvQ1uMEdvUVykxk4WiqVsHtE7Nb5XbBHVx2XSPrsqWz32A
KGCZWesC6jKKlzr9WzVcjywwwpmAJVcHFD414yvi2cnJOB2WMmzzUWtdcyXb1Eg4
K+Bo4zIAi9IPzHHktdag8HNZxHr+f7aTsrZ44calNpuYw8zqBKvEBT7f+8jyuA/d
YGYlCwQHOQK+RB5JTAkumON4Y6wk8LmNVnoxRApOKEA9alTAnLkmE6UHBPEuD6SF
BEVDB4FJIZ7Q52jrgtOErLvluRrAPeECAwEAAaN1MHMwHwYDVR0jBBgwFoAUk3Dy
x0dhAMVb1HrEgJThh4tuj7EwDAYDVR0TAQH/BAIwADATBgNVHSUEDDAKBggrBgEF
BQcDAjAOBgNVHQ8BAf8EBAMCB4AwHQYDVR0OBBYEFA/PxIexSXlmOt6ZaMMKw560
PSORMA0GCSqGSIb3DQEBCwUAA4ICAQBDbRRQXnztb24fwHmptiPqZG4Lul4toXRK
hOpfqeuyPNWnRDvPVr37WJP4+A1+xEgbaFrnkurN/y4LxFdj5BFyQozt1lLbEM0D
JYazao0UryF8HimTeH2NKPTkAQc1sQgGmNkuD7qHNdyDXJ6pB/TIAUEcvoGbK72q
o0JKN9Pygs9SrP0JZFxrLqSr0+24+rg2yJTysLaBGPqKL78/RmwxEAWpLcpTDlMT
LU8TTLrRUBs/ZMtlwrsHr98iEl5WCKSrmMQcSFOBMfzTshFCKdoNT9orU1lxL/XR
TgJ1w6urAZfUiMmPOuvnw+QNoZ5KZC4qp5JJv4aa7tSr9p2Caowj/c7Qqbn1LiMQ
D1QiIxGtFScv0zCAwJbsM5yf9gkF7C+b1dJ93GI1Su1wkSYSTyDMHgoas9fYaIDd
JJcz59JfprI2vgMnWzKcWSeOp/DmkbQncHpXIhI+5ITjpyxNUvrhip0bOkCp5Cpq
zzPnHGynv3E7/qPl95QPLRDdQ9WU1QjkTkUznnPO+TR72DeC+V43koS2dzTmQy+G
r9CCs+NQiaeMMoEazU+v5nIoU65gzJzYSL3xat9ALPo7IGSEPdw0M6iN0OKhl02+
H15U7A/XvSLeuHxMA0+3CaT45zdqhgMaXZhu5B/o/fw01bNtYuwa4JHDBAcOmZMq
U2AwRGp0ig==
-----END CERTIFICATE-----
