Certificate:
    Data:
        Version: 3 (0x2)
        Serial Number: 4096 (0x1000)
        Signature Algorithm: sha256WithRSAEncryption
        Issuer: C=ES, O=Juan y Fernando SEG, CN=Cliente-SUB CA
        Validity
            Not Before: Dec 24 00:42:44 2022 GMT
            Not After : Dec 24 00:42:44 2023 GMT
        Subject: C=ES, ST=PO, O=Seguridad Fernando Juan Pedro, CN=Cliente-Sign
        Subject Public Key Info:
            Public Key Algorithm: rsaEncryption
                Public-Key: (2048 bit)
                Modulus:
                    00:c1:6c:dd:cd:9b:04:83:ce:bf:87:ae:5c:0f:83:
                    28:1e:ea:46:d4:b2:11:c6:7b:b2:3c:e2:66:04:01:
                    90:be:8e:85:2f:57:5f:11:f4:13:9a:19:30:e1:c8:
                    0f:85:a7:2a:b8:99:07:e4:6b:a5:c6:5e:95:10:1e:
                    c9:94:2b:41:3f:e7:ad:25:10:a1:50:bd:8d:e2:d9:
                    a2:eb:e9:b5:06:15:c8:d2:5e:bb:1c:ac:8b:77:39:
                    d5:b3:08:a1:f0:13:1f:3a:19:a8:19:d5:d3:97:1a:
                    5e:7c:4f:33:b3:55:46:2f:e6:65:f0:a7:65:bc:88:
                    cb:f1:df:ee:73:a8:8a:8e:a8:ed:53:63:d2:9b:d4:
                    f7:f3:d9:85:f8:46:28:90:e6:fe:11:c1:67:82:05:
                    a4:9d:77:33:b2:88:eb:93:eb:2e:ca:56:71:e4:a3:
                    08:8c:f2:1e:cb:18:aa:ad:a7:6c:17:80:ab:64:8d:
                    3d:be:ba:58:df:28:56:f8:d0:a4:e8:ee:e9:04:8b:
                    83:4a:f7:a0:3d:e8:74:70:bb:85:27:95:8d:7b:6c:
                    37:2e:c2:e8:9f:a0:e4:cf:00:b8:1a:fa:ce:55:5b:
                    b4:52:96:34:d6:ed:3f:ef:80:83:13:35:49:fa:ea:
                    70:5c:d8:93:48:1b:94:59:07:86:3a:7d:1d:43:bd:
                    b0:83
                Exponent: 65537 (0x10001)
        X509v3 extensions:
            X509v3 Authority Key Identifier: 
                93:70:F2:C7:47:61:00:C5:5B:D4:7A:C4:80:94:E1:87:8B:6E:8F:B1
            X509v3 Basic Constraints: 
                CA:FALSE
            X509v3 Key Usage: 
                Digital Signature
            X509v3 Subject Key Identifier: 
                A8:61:41:53:90:52:BA:1C:80:F2:89:A5:19:FE:93:E7:27:AD:0D:A7
    Signature Algorithm: sha256WithRSAEncryption
    Signature Value:
        20:06:8f:4d:c0:d8:ba:b5:dc:d9:55:c7:58:cb:7b:67:0d:eb:
        dc:38:6a:db:6d:b5:3f:65:f3:f5:62:70:f8:16:23:df:82:53:
        3d:b2:7c:f1:6c:93:72:b3:39:7c:8d:17:0e:3d:f8:73:4e:c1:
        7e:e0:0e:04:39:37:1d:5c:32:0d:ca:b5:e3:1a:5f:5d:d9:66:
        3e:63:5b:d8:8d:b7:e1:0f:15:ae:be:7d:d4:96:51:ba:74:e5:
        12:b3:39:c7:32:06:f1:ec:e6:7a:74:32:30:e8:79:bd:dd:8e:
        c4:91:57:64:ab:12:d4:91:f2:fd:10:fc:45:91:25:ea:04:80:
        61:47:2a:07:c8:5d:f4:85:44:34:33:71:73:59:51:71:3c:c6:
        08:95:3b:06:c7:f8:72:f1:d6:ed:6a:16:16:64:b8:7d:0a:75:
        1a:4a:f7:76:66:8d:85:15:b7:b3:71:3d:1b:c3:f2:97:ea:ba:
        1e:98:6f:cb:5f:17:87:22:62:ad:5b:4b:fd:67:c7:a3:53:ba:
        2a:53:8a:ad:08:d9:48:39:0e:77:94:c6:4f:da:79:c2:33:0d:
        1e:5e:3f:dc:c6:f5:ea:37:17:83:cc:ff:0b:fe:1d:1d:58:c9:
        e1:17:be:c2:25:dd:ab:a7:7f:f0:1b:41:56:8e:02:73:ba:a3:
        c7:6f:80:b1:ee:70:73:7a:59:5c:6e:5a:a9:ca:80:4a:cb:01:
        4e:84:0e:12:96:3a:e9:b3:16:6c:cb:78:cf:d4:01:2e:b0:ef:
        85:4b:25:a2:0f:0c:b6:49:75:55:bf:6d:66:93:f5:2a:88:6e:
        74:81:76:bf:6e:02:1c:4e:43:e3:d6:f9:3b:36:5c:ec:6c:41:
        71:6f:51:53:df:f1:01:2f:c6:2b:44:ec:2c:8f:1d:10:04:a0:
        89:f7:b6:15:3c:5c:33:f1:b4:13:93:97:93:5b:13:aa:1f:83:
        e6:38:05:81:91:16:ad:f1:dd:8e:69:51:67:b9:8b:da:02:b1:
        0f:d3:8a:be:68:7b:49:30:d5:23:0e:7a:c0:d6:95:f1:a2:a1:
        35:d2:e4:ee:3b:5a:98:2c:55:c2:6a:32:e1:cb:67:bb:c3:97:
        17:7a:d8:be:fd:42:de:83:3e:fc:fb:96:3d:86:b4:63:ee:43:
        5b:f5:0d:39:8b:0e:1b:24:41:76:53:77:79:92:b2:b1:7f:58:
        59:12:0a:66:eb:16:0e:4c:32:cd:b5:7b:c5:ac:20:94:75:64:
        a0:c9:1d:e0:a0:75:44:fa:76:65:33:c1:77:09:fe:a7:4e:db:
        95:f6:7d:7e:c7:10:20:3a:aa:4d:de:ea:b4:e9:08:df:08:55:
        61:a1:37:9c:a3:d0:63:93
-----BEGIN CERTIFICATE-----
MIIEczCCAlugAwIBAgICEAAwDQYJKoZIhvcNAQELBQAwRDELMAkGA1UEBhMCRVMx
HDAaBgNVBAoME0p1YW4geSBGZXJuYW5kbyBTRUcxFzAVBgNVBAMMDkNsaWVudGUt
U1VCIENBMB4XDTIyMTIyNDAwNDI0NFoXDTIzMTIyNDAwNDI0NFowWTELMAkGA1UE
BhMCRVMxCzAJBgNVBAgMAlBPMSYwJAYDVQQKDB1TZWd1cmlkYWQgRmVybmFuZG8g
SnVhbiBQZWRybzEVMBMGA1UEAwwMQ2xpZW50ZS1TaWduMIIBIjANBgkqhkiG9w0B
AQEFAAOCAQ8AMIIBCgKCAQEAwWzdzZsEg86/h65cD4MoHupG1LIRxnuyPOJmBAGQ
vo6FL1dfEfQTmhkw4cgPhacquJkH5Gulxl6VEB7JlCtBP+etJRChUL2N4tmi6+m1
BhXI0l67HKyLdznVswih8BMfOhmoGdXTlxpefE8zs1VGL+Zl8KdlvIjL8d/uc6iK
jqjtU2PSm9T389mF+EYokOb+EcFnggWknXczsojrk+suylZx5KMIjPIeyxiqrads
F4CrZI09vrpY3yhW+NCk6O7pBIuDSvegPeh0cLuFJ5WNe2w3LsLon6DkzwC4GvrO
VVu0UpY01u0/74CDEzVJ+upwXNiTSBuUWQeGOn0dQ72wgwIDAQABo1owWDAfBgNV
HSMEGDAWgBSTcPLHR2EAxVvUesSAlOGHi26PsTAJBgNVHRMEAjAAMAsGA1UdDwQE
AwIHgDAdBgNVHQ4EFgQUqGFBU5BSuhyA8omlGf6T5yetDacwDQYJKoZIhvcNAQEL
BQADggIBACAGj03A2Lq13NlVx1jLe2cN69w4attttT9l8/VicPgWI9+CUz2yfPFs
k3KzOXyNFw49+HNOwX7gDgQ5Nx1cMg3KteMaX13ZZj5jW9iNt+EPFa6+fdSWUbp0
5RKzOccyBvHs5np0MjDoeb3djsSRV2SrEtSR8v0Q/EWRJeoEgGFHKgfIXfSFRDQz
cXNZUXE8xgiVOwbH+HLx1u1qFhZkuH0KdRpK93ZmjYUVt7NxPRvD8pfquh6Yb8tf
F4ciYq1bS/1nx6NTuipTiq0I2Ug5DneUxk/aecIzDR5eP9zG9eo3F4PM/wv+HR1Y
yeEXvsIl3aunf/AbQVaOAnO6o8dvgLHucHN6WVxuWqnKgErLAU6EDhKWOumzFmzL
eM/UAS6w74VLJaIPDLZJdVW/bWaT9SqIbnSBdr9uAhxOQ+PW+Ts2XOxsQXFvUVPf
8QEvxitE7CyPHRAEoIn3thU8XDPxtBOTl5NbE6ofg+Y4BYGRFq3x3Y5pUWe5i9oC
sQ/Tir5oe0kw1SMOesDWlfGioTXS5O47WpgsVcJqMuHLZ7vDlxd62L79Qt6DPvz7
lj2GtGPuQ1v1DTmLDhskQXZTd3mSsrF/WFkSCmbrFg5MMs21e8WsIJR1ZKDJHeCg
dUT6dmUzwXcJ/qdO25X2fX7HECA6qk3e6rTpCN8IVWGhN5yj0GOT
-----END CERTIFICATE-----
