Certificate:
    Data:
        Version: 3 (0x2)
        Serial Number: 4097 (0x1001)
        Signature Algorithm: sha256WithRSAEncryption
        Issuer: C=ES, O=Juan y Fernando SEG, CN=Cliente-SUB CA
        Validity
            Not Before: Dec 24 00:42:52 2022 GMT
            Not After : Dec 24 00:42:52 2023 GMT
        Subject: C=ES, ST=PO, O=Seguridad Fernando Juan Pedro, CN=Cliente-Auth
        Subject Public Key Info:
            Public Key Algorithm: rsaEncryption
                Public-Key: (2048 bit)
                Modulus:
                    00:db:23:b8:e3:c9:84:d3:f6:14:b8:50:65:6e:90:
                    e7:76:34:d9:90:ae:70:56:53:4b:4d:07:87:89:a0:
                    a3:93:1b:e9:3d:87:8a:a5:39:28:3e:4e:66:c1:dd:
                    1b:6d:4a:ea:0a:9f:92:e6:53:f0:d1:c9:dc:1b:9f:
                    9d:e0:e7:ea:00:e6:33:5c:87:96:1d:f4:cc:38:a1:
                    f5:f2:ab:3e:a5:c3:81:d5:67:1b:5d:9e:86:53:db:
                    01:9d:be:06:8b:87:35:96:8c:b5:3d:16:e0:27:01:
                    a1:dc:93:04:34:e8:70:34:6e:e2:55:57:0e:7f:47:
                    ad:52:3b:b5:4e:14:c1:39:51:6e:a4:68:c0:e3:92:
                    cb:6d:f1:9b:57:11:6f:22:52:de:f1:3f:e5:ea:c4:
                    07:4b:50:7e:ea:1b:bd:5d:17:d8:58:97:cf:d3:c4:
                    4d:04:e4:4e:b0:2b:14:f9:77:1e:90:a8:a3:ee:37:
                    19:37:1c:9f:3b:9d:fb:e5:4b:e0:34:1e:4c:54:83:
                    de:5b:78:74:bf:34:5b:58:14:f0:20:9d:37:9d:fd:
                    5e:3a:38:1e:58:6f:83:35:1d:99:21:f0:bc:a1:94:
                    fc:39:c5:2f:28:82:1f:98:ba:fe:2a:b7:3e:6e:ab:
                    13:98:2e:c9:ff:12:22:a6:67:f3:c5:0e:37:4a:eb:
                    55:b3
                Exponent: 65537 (0x10001)
        X509v3 extensions:
            X509v3 Authority Key Identifier: 
                93:70:F2:C7:47:61:00:C5:5B:D4:7A:C4:80:94:E1:87:8B:6E:8F:B1
            X509v3 Basic Constraints: critical
                CA:FALSE
            X509v3 Extended Key Usage: 
                TLS Web Client Authentication
            X509v3 Subject Key Identifier: 
                9A:D7:E0:46:DE:F3:B6:03:FC:31:62:9F:92:BE:1A:BA:3C:4E:B3:BB
    Signature Algorithm: sha256WithRSAEncryption
    Signature Value:
        5d:8a:76:9b:f8:40:f6:d9:b9:d9:40:8c:4c:ef:23:5d:91:d4:
        73:6b:9a:f3:86:d8:7b:69:2b:29:4e:87:a0:dd:d7:3a:2e:27:
        2e:aa:7a:90:98:d5:58:db:cd:7c:20:79:6f:75:0e:7c:54:a7:
        81:1e:1a:a2:8f:55:18:30:0a:34:13:5a:2c:c7:bd:04:24:10:
        ac:df:ed:b3:7f:eb:12:ab:49:25:70:dc:69:87:4a:45:62:2d:
        56:5b:af:c1:03:a4:df:77:0f:a1:16:0d:49:77:ae:a8:5d:87:
        23:90:12:5e:0c:92:e3:3e:9b:2a:c1:0f:82:4f:c4:07:6f:a1:
        0e:5d:48:ed:ec:6d:0b:03:4b:7d:63:93:65:83:f1:a2:b9:24:
        3f:10:ce:4a:90:60:a5:4d:36:56:f1:ab:d1:83:27:b5:69:cc:
        55:93:be:28:29:72:80:80:2a:36:49:0f:b3:48:b6:c9:28:25:
        63:2c:ee:fd:3b:85:d9:48:cc:aa:0d:2f:2c:4d:82:91:6d:46:
        be:99:0e:84:e0:0a:cf:74:33:48:81:f0:dd:a5:a4:ed:43:2d:
        14:98:83:08:d7:06:b0:9c:61:61:bd:1d:1e:63:da:18:45:4e:
        6c:c6:39:10:a4:c5:a4:96:8c:b5:61:91:dd:42:22:13:0f:42:
        28:24:51:9a:a0:cb:96:a6:e3:bf:93:24:3f:e8:56:16:b4:d3:
        fb:1d:f2:60:51:8e:52:21:d8:9e:9a:d8:41:16:7e:90:72:3a:
        a5:11:17:99:6a:26:a5:ab:bc:66:06:39:79:fb:4a:2c:00:90:
        c1:bd:86:f4:ff:bc:79:90:b9:0c:6e:df:89:4e:7a:1f:fa:43:
        72:27:51:50:c4:38:74:4e:e6:b3:74:cd:78:8c:6b:8e:09:8a:
        e6:16:16:60:1c:90:a1:49:52:60:10:2d:da:b1:a6:65:a2:a4:
        c3:0c:c3:ad:c8:f5:15:85:32:4f:fc:13:6c:3f:75:67:6f:56:
        d5:7a:4a:1e:34:e5:e8:41:bf:13:bb:1e:78:32:14:bc:50:4a:
        33:a5:2d:8c:d6:43:bd:24:5f:73:fb:cf:b7:1e:47:1b:ba:b4:
        34:ae:95:17:5a:40:00:f0:dc:1f:26:de:98:fb:f1:d5:c2:43:
        52:ac:ec:c8:c8:15:09:40:c2:3d:64:03:d8:b1:85:ee:3c:61:
        95:58:8c:67:37:c0:a1:32:76:bf:68:8b:93:d2:d9:be:e2:e1:
        72:8f:83:08:bc:61:9a:b0:e9:0c:c4:ad:9c:02:a6:66:4f:92:
        a8:6c:8a:89:4f:c4:34:7b:37:4f:83:e7:09:6b:9d:bf:c8:59:
        76:4a:ca:13:0f:01:0b:8b
-----BEGIN CERTIFICATE-----
MIIEfjCCAmagAwIBAgICEAEwDQYJKoZIhvcNAQELBQAwRDELMAkGA1UEBhMCRVMx
HDAaBgNVBAoME0p1YW4geSBGZXJuYW5kbyBTRUcxFzAVBgNVBAMMDkNsaWVudGUt
U1VCIENBMB4XDTIyMTIyNDAwNDI1MloXDTIzMTIyNDAwNDI1MlowWTELMAkGA1UE
BhMCRVMxCzAJBgNVBAgMAlBPMSYwJAYDVQQKDB1TZWd1cmlkYWQgRmVybmFuZG8g
SnVhbiBQZWRybzEVMBMGA1UEAwwMQ2xpZW50ZS1BdXRoMIIBIjANBgkqhkiG9w0B
AQEFAAOCAQ8AMIIBCgKCAQEA2yO448mE0/YUuFBlbpDndjTZkK5wVlNLTQeHiaCj
kxvpPYeKpTkoPk5mwd0bbUrqCp+S5lPw0cncG5+d4OfqAOYzXIeWHfTMOKH18qs+
pcOB1WcbXZ6GU9sBnb4Gi4c1loy1PRbgJwGh3JMENOhwNG7iVVcOf0etUju1ThTB
OVFupGjA45LLbfGbVxFvIlLe8T/l6sQHS1B+6hu9XRfYWJfP08RNBOROsCsU+Xce
kKij7jcZNxyfO5375UvgNB5MVIPeW3h0vzRbWBTwIJ03nf1eOjgeWG+DNR2ZIfC8
oZT8OcUvKIIfmLr+Krc+bqsTmC7J/xIipmfzxQ43SutVswIDAQABo2UwYzAfBgNV
HSMEGDAWgBSTcPLHR2EAxVvUesSAlOGHi26PsTAMBgNVHRMBAf8EAjAAMBMGA1Ud
JQQMMAoGCCsGAQUFBwMCMB0GA1UdDgQWBBSa1+BG3vO2A/wxYp+Svhq6PE6zuzAN
BgkqhkiG9w0BAQsFAAOCAgEAXYp2m/hA9tm52UCMTO8jXZHUc2ua84bYe2krKU6H
oN3XOi4nLqp6kJjVWNvNfCB5b3UOfFSngR4aoo9VGDAKNBNaLMe9BCQQrN/ts3/r
EqtJJXDcaYdKRWItVluvwQOk33cPoRYNSXeuqF2HI5ASXgyS4z6bKsEPgk/EB2+h
Dl1I7extCwNLfWOTZYPxorkkPxDOSpBgpU02VvGr0YMntWnMVZO+KClygIAqNkkP
s0i2ySglYyzu/TuF2UjMqg0vLE2CkW1GvpkOhOAKz3QzSIHw3aWk7UMtFJiDCNcG
sJxhYb0dHmPaGEVObMY5EKTFpJaMtWGR3UIiEw9CKCRRmqDLlqbjv5MkP+hWFrTT
+x3yYFGOUiHYnprYQRZ+kHI6pREXmWompau8ZgY5eftKLACQwb2G9P+8eZC5DG7f
iU56H/pDcidRUMQ4dE7ms3TNeIxrjgmK5hYWYByQoUlSYBAt2rGmZaKkwwzDrcj1
FYUyT/wTbD91Z29W1XpKHjTl6EG/E7seeDIUvFBKM6UtjNZDvSRfc/vPtx5HG7q0
NK6VF1pAAPDcHybemPvx1cJDUqzsyMgVCUDCPWQD2LGF7jxhlViMZzfAoTJ2v2iL
k9LZvuLhco+DCLxhmrDpDMStnAKmZk+SqGyKiU/ENHs3T4PnCWudv8hZdkrKEw8B
C4s=
-----END CERTIFICATE-----
