Certificate:
    Data:
        Version: 3 (0x2)
        Serial Number: 4097 (0x1001)
        Signature Algorithm: sha256WithRSAEncryption
        Issuer: C=ES, O=Juan y Fernando SEG, CN=Cliente-SUB CA
        Validity
            Not Before: Dec 24 00:20:55 2022 GMT
            Not After : Dec 24 00:20:55 2023 GMT
        Subject: C=ES, ST=PO, O=Seguridad Fernando Juan y Pedro, CN=Cliente-Sign
        Subject Public Key Info:
            Public Key Algorithm: rsaEncryption
                Public-Key: (2048 bit)
                Modulus:
                    00:97:ca:2f:9f:6a:17:49:07:e7:a5:05:d4:aa:08:
                    b1:75:9e:5f:ce:50:8d:a0:dd:43:3c:6b:61:a3:8b:
                    35:e4:92:de:19:b9:8b:9d:30:c0:a6:03:5f:e5:23:
                    c0:2e:e5:e4:fe:0f:2b:e0:52:85:67:33:f5:08:34:
                    43:3e:ba:bf:f2:58:93:a3:17:10:f5:cb:c6:2f:3b:
                    d6:5b:52:fb:06:65:d9:76:62:9e:43:74:3a:10:0b:
                    06:50:2e:d6:f6:cd:a9:76:ae:06:99:c9:87:d6:a7:
                    a4:a2:00:a0:31:ff:d7:ee:48:ea:ea:67:43:b8:e4:
                    fb:0a:71:5b:43:de:a0:28:32:84:7e:4a:f1:16:13:
                    cb:04:67:3a:9f:3b:f7:1a:61:8d:45:95:fd:4d:a0:
                    0b:e8:55:f1:95:87:bd:49:30:12:b9:83:e3:36:d1:
                    b2:9f:5c:ea:aa:21:16:7d:d3:99:4b:53:b7:cc:ce:
                    86:be:ce:d2:dd:7c:a4:7d:de:45:52:e1:d5:0f:1d:
                    84:2f:fc:82:8a:fe:c3:13:9f:9e:f3:e0:40:06:4f:
                    45:1d:a1:a2:94:07:f8:fe:eb:b2:c8:b9:33:be:50:
                    5f:df:48:32:27:20:86:2a:d0:c6:48:86:1d:f6:50:
                    88:a6:10:10:f2:e5:36:7f:9a:f7:93:bd:1b:ed:a1:
                    6e:d9
                Exponent: 65537 (0x10001)
        X509v3 extensions:
            X509v3 Authority Key Identifier: 
                93:70:F2:C7:47:61:00:C5:5B:D4:7A:C4:80:94:E1:87:8B:6E:8F:B1
            X509v3 Basic Constraints: 
                CA:FALSE
            X509v3 Key Usage: 
                Digital Signature
            X509v3 Subject Key Identifier: 
                50:03:BA:83:7C:0D:B8:48:A2:70:03:88:19:6B:EA:EA:0B:22:26:C3
    Signature Algorithm: sha256WithRSAEncryption
    Signature Value:
        a1:76:5a:c8:f0:fc:3b:bc:44:82:8c:a5:0f:52:d4:f7:ba:44:
        e0:90:47:e4:af:ef:c6:ec:98:ab:de:63:3b:5c:9d:4b:95:c9:
        63:8a:9e:24:c3:65:90:d1:dd:93:be:f9:e1:03:9a:44:77:23:
        73:ad:a8:c2:97:6a:de:c7:77:88:71:32:7a:0c:95:05:d7:56:
        76:26:2f:00:7e:69:50:1b:f4:ac:55:4b:ca:2e:49:53:1d:fd:
        c4:90:2d:43:11:e3:8b:90:26:b3:70:4d:97:0f:f3:50:46:1c:
        70:a6:2f:83:39:42:df:ba:05:78:7b:21:ce:43:27:7b:f5:2d:
        b0:2c:6b:42:68:1d:b5:95:5a:c7:f3:49:b9:39:ea:16:84:84:
        34:38:36:dc:11:cd:f9:9b:8e:b2:6f:71:e1:6a:40:6d:2e:bb:
        ef:ce:02:da:17:13:bc:4e:4b:9f:01:11:f0:70:d6:58:3f:8b:
        9f:f1:d8:47:41:95:4b:a0:8e:e6:2c:e8:ca:62:10:6c:87:1e:
        b7:f8:9a:e5:10:f8:ef:f5:8f:25:a1:07:fb:b2:eb:99:2e:78:
        59:e4:74:80:dd:fd:63:b7:82:4a:ca:4b:1e:f7:51:77:dc:ac:
        e7:cd:e4:4c:8a:14:3b:65:aa:b4:0b:4f:35:db:ca:b5:6f:dd:
        87:f8:70:05:e0:8c:c3:f8:b7:2b:ad:66:a8:d4:15:5c:f8:14:
        05:f8:1f:2d:a8:1d:a9:c4:96:1a:de:7c:ea:e1:a0:a9:5f:03:
        a2:14:6d:3e:b4:72:d6:24:41:da:14:6d:fd:77:bb:30:68:64:
        ef:fc:4f:aa:92:46:1d:b2:97:f0:ff:7c:de:48:3d:d9:b6:5b:
        9d:0b:65:ce:0b:5c:42:63:3e:7d:83:22:80:a0:d6:db:d5:14:
        d9:70:e7:75:d4:6f:d4:6d:39:5d:47:70:f9:56:c2:b5:2d:f7:
        2d:5f:55:59:56:a4:59:10:6c:63:78:c1:2a:23:a8:63:e0:ae:
        61:cc:90:6e:e4:a8:09:16:52:2a:72:d3:cf:29:bd:38:21:77:
        d0:88:f6:73:46:85:61:e7:f5:9e:8a:89:b5:47:31:96:9b:e0:
        86:60:38:42:cc:d7:92:de:c0:5e:8f:c2:6d:bd:5f:c0:3b:8f:
        fd:b4:cf:c7:4a:06:78:84:3a:bd:ac:38:de:5c:85:32:17:62:
        9a:5b:18:95:9f:d6:2e:33:ba:e9:ed:02:0d:44:53:00:68:d0:
        b6:af:0f:1a:1a:31:53:cb:9b:19:b4:cf:02:21:89:d0:03:36:
        b1:52:dd:36:27:29:8a:a5:ba:5b:58:c5:d1:e5:5b:82:8f:e3:
        85:9c:75:81:f1:2e:8d:4c
-----BEGIN CERTIFICATE-----
MIIEdTCCAl2gAwIBAgICEAEwDQYJKoZIhvcNAQELBQAwRDELMAkGA1UEBhMCRVMx
HDAaBgNVBAoME0p1YW4geSBGZXJuYW5kbyBTRUcxFzAVBgNVBAMMDkNsaWVudGUt
U1VCIENBMB4XDTIyMTIyNDAwMjA1NVoXDTIzMTIyNDAwMjA1NVowWzELMAkGA1UE
BhMCRVMxCzAJBgNVBAgMAlBPMSgwJgYDVQQKDB9TZWd1cmlkYWQgRmVybmFuZG8g
SnVhbiB5IFBlZHJvMRUwEwYDVQQDDAxDbGllbnRlLVNpZ24wggEiMA0GCSqGSIb3
DQEBAQUAA4IBDwAwggEKAoIBAQCXyi+fahdJB+elBdSqCLF1nl/OUI2g3UM8a2Gj
izXkkt4ZuYudMMCmA1/lI8Au5eT+DyvgUoVnM/UINEM+ur/yWJOjFxD1y8YvO9Zb
UvsGZdl2Yp5DdDoQCwZQLtb2zal2rgaZyYfWp6SiAKAx/9fuSOrqZ0O45PsKcVtD
3qAoMoR+SvEWE8sEZzqfO/caYY1Flf1NoAvoVfGVh71JMBK5g+M20bKfXOqqIRZ9
05lLU7fMzoa+ztLdfKR93kVS4dUPHYQv/IKK/sMTn57z4EAGT0UdoaKUB/j+67LI
uTO+UF/fSDInIIYq0MZIhh32UIimEBDy5TZ/mveTvRvtoW7ZAgMBAAGjWjBYMB8G
A1UdIwQYMBaAFJNw8sdHYQDFW9R6xICU4YeLbo+xMAkGA1UdEwQCMAAwCwYDVR0P
BAQDAgeAMB0GA1UdDgQWBBRQA7qDfA24SKJwA4gZa+rqCyImwzANBgkqhkiG9w0B
AQsFAAOCAgEAoXZayPD8O7xEgoylD1LU97pE4JBH5K/vxuyYq95jO1ydS5XJY4qe
JMNlkNHdk7754QOaRHcjc62owpdq3sd3iHEyegyVBddWdiYvAH5pUBv0rFVLyi5J
Ux39xJAtQxHji5Ams3BNlw/zUEYccKYvgzlC37oFeHshzkMne/UtsCxrQmgdtZVa
x/NJuTnqFoSENDg23BHN+ZuOsm9x4WpAbS67784C2hcTvE5LnwER8HDWWD+Ln/HY
R0GVS6CO5izoymIQbIcet/ia5RD47/WPJaEH+7LrmS54WeR0gN39Y7eCSspLHvdR
d9ys583kTIoUO2WqtAtPNdvKtW/dh/hwBeCMw/i3K61mqNQVXPgUBfgfLagdqcSW
Gt586uGgqV8DohRtPrRy1iRB2hRt/Xe7MGhk7/xPqpJGHbKX8P983kg92bZbnQtl
zgtcQmM+fYMigKDW29UU2XDnddRv1G05XUdw+VbCtS33LV9VWVakWRBsY3jBKiOo
Y+CuYcyQbuSoCRZSKnLTzym9OCF30Ij2c0aFYef1noqJtUcxlpvghmA4QszXkt7A
Xo/Cbb1fwDuP/bTPx0oGeIQ6vaw43lyFMhdimlsYlZ/WLjO66e0CDURTAGjQtq8P
GhoxU8ubGbTPAiGJ0AM2sVLdNicpiqW6W1jF0eVbgo/jhZx1gfEujUw=
-----END CERTIFICATE-----
