Certificate:
    Data:
        Version: 3 (0x2)
        Serial Number: 4098 (0x1002)
        Signature Algorithm: sha256WithRSAEncryption
        Issuer: C=ES, O=Juan y Fernando SEG, CN=Cliente-SUB CA
        Validity
            Not Before: Dec 24 00:21:06 2022 GMT
            Not After : Dec 24 00:21:06 2023 GMT
        Subject: C=ES, ST=PO, O=Seguridad Fernando Juan y Pedro, CN=Cliente-Sign
        Subject Public Key Info:
            Public Key Algorithm: rsaEncryption
                Public-Key: (2048 bit)
                Modulus:
                    00:97:ca:2f:9f:6a:17:49:07:e7:a5:05:d4:aa:08:
                    b1:75:9e:5f:ce:50:8d:a0:dd:43:3c:6b:61:a3:8b:
                    35:e4:92:de:19:b9:8b:9d:30:c0:a6:03:5f:e5:23:
                    c0:2e:e5:e4:fe:0f:2b:e0:52:85:67:33:f5:08:34:
                    43:3e:ba:bf:f2:58:93:a3:17:10:f5:cb:c6:2f:3b:
                    d6:5b:52:fb:06:65:d9:76:62:9e:43:74:3a:10:0b:
                    06:50:2e:d6:f6:cd:a9:76:ae:06:99:c9:87:d6:a7:
                    a4:a2:00:a0:31:ff:d7:ee:48:ea:ea:67:43:b8:e4:
                    fb:0a:71:5b:43:de:a0:28:32:84:7e:4a:f1:16:13:
                    cb:04:67:3a:9f:3b:f7:1a:61:8d:45:95:fd:4d:a0:
                    0b:e8:55:f1:95:87:bd:49:30:12:b9:83:e3:36:d1:
                    b2:9f:5c:ea:aa:21:16:7d:d3:99:4b:53:b7:cc:ce:
                    86:be:ce:d2:dd:7c:a4:7d:de:45:52:e1:d5:0f:1d:
                    84:2f:fc:82:8a:fe:c3:13:9f:9e:f3:e0:40:06:4f:
                    45:1d:a1:a2:94:07:f8:fe:eb:b2:c8:b9:33:be:50:
                    5f:df:48:32:27:20:86:2a:d0:c6:48:86:1d:f6:50:
                    88:a6:10:10:f2:e5:36:7f:9a:f7:93:bd:1b:ed:a1:
                    6e:d9
                Exponent: 65537 (0x10001)
        X509v3 extensions:
            X509v3 Authority Key Identifier: 
                93:70:F2:C7:47:61:00:C5:5B:D4:7A:C4:80:94:E1:87:8B:6E:8F:B1
            X509v3 Basic Constraints: critical
                CA:FALSE
            X509v3 Extended Key Usage: 
                TLS Web Client Authentication
            X509v3 Subject Key Identifier: 
                50:03:BA:83:7C:0D:B8:48:A2:70:03:88:19:6B:EA:EA:0B:22:26:C3
    Signature Algorithm: sha256WithRSAEncryption
    Signature Value:
        75:cb:b5:d1:02:00:46:92:b0:48:e8:2e:42:d6:78:39:e3:68:
        84:64:9e:90:27:7e:7f:f0:c8:c4:00:54:c9:ce:99:d2:4e:b6:
        1d:aa:2b:8a:b7:fb:83:75:44:48:fb:0b:16:6c:ac:e1:70:ba:
        f8:ee:d7:cd:0b:98:a0:75:b3:23:36:91:a2:d6:ba:d4:0a:20:
        d7:b0:80:77:48:4a:b0:29:7a:b9:73:cb:d5:6e:89:8a:66:b2:
        7b:24:0e:ea:9d:1f:49:54:c6:11:bf:0b:b3:dc:1a:2c:b4:ad:
        4d:df:92:7b:ab:45:61:80:a3:db:53:3b:77:9f:cc:98:5a:f3:
        8b:28:32:b6:4f:d6:e6:51:ea:5a:42:68:52:c2:08:0b:c3:38:
        68:6c:0d:c9:ba:0d:ec:36:b9:ae:7c:27:f5:69:a0:f9:52:b9:
        60:de:fb:6c:3c:59:c0:2a:bc:fa:d2:f9:4e:af:5f:6d:65:1c:
        43:fa:9d:48:01:f4:fb:57:89:93:e1:8f:6d:da:96:5b:f0:13:
        d0:16:12:ee:b9:f2:9c:eb:d0:cc:0a:73:b4:c1:be:d0:1b:ed:
        f1:db:21:2c:9b:ee:1d:ba:ca:df:24:9b:c1:02:49:fa:36:aa:
        1e:ab:8e:eb:4c:c1:a5:9d:86:c1:7a:df:25:bf:c4:8d:ca:81:
        4e:9c:fc:e0:62:d8:f9:ad:7c:0a:37:80:0a:27:3e:d5:b9:49:
        36:f6:30:d4:69:a0:9e:f2:33:d6:66:58:2d:fe:50:0b:e8:65:
        10:49:ad:26:b8:d9:e8:e1:20:0a:60:96:42:46:1c:96:4f:47:
        71:99:6b:ff:15:99:56:d0:1c:a8:51:c1:3c:d5:e8:05:6d:dc:
        9f:2e:d8:e2:62:e6:71:42:b6:98:c2:01:b1:a2:f2:5a:ef:8c:
        8b:07:2f:ff:b3:7d:17:d2:7c:c9:7e:8b:c9:e4:dc:96:2d:fc:
        3c:92:2b:47:fe:9c:09:8c:1f:73:89:03:a6:c9:b5:c0:ad:e6:
        2c:37:4b:f3:69:fe:07:16:c6:5b:45:1e:f7:19:ba:df:22:c4:
        6e:3b:5f:f7:ec:9b:bd:21:64:2d:cb:ed:1d:6f:b1:ea:df:91:
        30:49:db:6f:6d:09:53:a2:27:31:7f:c8:4e:63:71:08:4b:d1:
        e4:40:42:a7:dd:43:db:a4:ef:e6:36:22:3b:76:75:e7:1d:0f:
        d7:1b:b8:43:74:3f:6c:14:53:7e:fa:5a:7b:bc:e3:51:82:f4:
        b7:7d:b9:17:cb:9b:2a:21:da:4b:b2:64:41:3c:bd:7f:ab:d8:
        0f:84:a1:a7:f2:1d:c8:49:9e:90:04:26:80:70:c5:6e:09:93:
        6d:3d:31:d8:b8:b3:bb:5e
-----BEGIN CERTIFICATE-----
MIIEgDCCAmigAwIBAgICEAIwDQYJKoZIhvcNAQELBQAwRDELMAkGA1UEBhMCRVMx
HDAaBgNVBAoME0p1YW4geSBGZXJuYW5kbyBTRUcxFzAVBgNVBAMMDkNsaWVudGUt
U1VCIENBMB4XDTIyMTIyNDAwMjEwNloXDTIzMTIyNDAwMjEwNlowWzELMAkGA1UE
BhMCRVMxCzAJBgNVBAgMAlBPMSgwJgYDVQQKDB9TZWd1cmlkYWQgRmVybmFuZG8g
SnVhbiB5IFBlZHJvMRUwEwYDVQQDDAxDbGllbnRlLVNpZ24wggEiMA0GCSqGSIb3
DQEBAQUAA4IBDwAwggEKAoIBAQCXyi+fahdJB+elBdSqCLF1nl/OUI2g3UM8a2Gj
izXkkt4ZuYudMMCmA1/lI8Au5eT+DyvgUoVnM/UINEM+ur/yWJOjFxD1y8YvO9Zb
UvsGZdl2Yp5DdDoQCwZQLtb2zal2rgaZyYfWp6SiAKAx/9fuSOrqZ0O45PsKcVtD
3qAoMoR+SvEWE8sEZzqfO/caYY1Flf1NoAvoVfGVh71JMBK5g+M20bKfXOqqIRZ9
05lLU7fMzoa+ztLdfKR93kVS4dUPHYQv/IKK/sMTn57z4EAGT0UdoaKUB/j+67LI
uTO+UF/fSDInIIYq0MZIhh32UIimEBDy5TZ/mveTvRvtoW7ZAgMBAAGjZTBjMB8G
A1UdIwQYMBaAFJNw8sdHYQDFW9R6xICU4YeLbo+xMAwGA1UdEwEB/wQCMAAwEwYD
VR0lBAwwCgYIKwYBBQUHAwIwHQYDVR0OBBYEFFADuoN8DbhIonADiBlr6uoLIibD
MA0GCSqGSIb3DQEBCwUAA4ICAQB1y7XRAgBGkrBI6C5C1ng542iEZJ6QJ35/8MjE
AFTJzpnSTrYdqiuKt/uDdURI+wsWbKzhcLr47tfNC5igdbMjNpGi1rrUCiDXsIB3
SEqwKXq5c8vVbomKZrJ7JA7qnR9JVMYRvwuz3BostK1N35J7q0VhgKPbUzt3n8yY
WvOLKDK2T9bmUepaQmhSwggLwzhobA3Jug3sNrmufCf1aaD5Urlg3vtsPFnAKrz6
0vlOr19tZRxD+p1IAfT7V4mT4Y9t2pZb8BPQFhLuufKc69DMCnO0wb7QG+3x2yEs
m+4dusrfJJvBAkn6Nqoeq47rTMGlnYbBet8lv8SNyoFOnPzgYtj5rXwKN4AKJz7V
uUk29jDUaaCe8jPWZlgt/lAL6GUQSa0muNno4SAKYJZCRhyWT0dxmWv/FZlW0Byo
UcE81egFbdyfLtjiYuZxQraYwgGxovJa74yLBy//s30X0nzJfovJ5NyWLfw8kitH
/pwJjB9ziQOmybXAreYsN0vzaf4HFsZbRR73GbrfIsRuO1/37Ju9IWQty+0db7Hq
35EwSdtvbQlToicxf8hOY3EIS9HkQEKn3UPbpO/mNiI7dnXnHQ/XG7hDdD9sFFN+
+lp7vONRgvS3fbkXy5sqIdpLsmRBPL1/q9gPhKGn8h3ISZ6QBCaAcMVuCZNtPTHY
uLO7Xg==
-----END CERTIFICATE-----
