Certificate:
    Data:
        Version: 3 (0x2)
        Serial Number: 4099 (0x1003)
        Signature Algorithm: sha256WithRSAEncryption
        Issuer: C=ES, O=Juan y Fernando SEG, CN=Cliente-SUB CA
        Validity
            Not Before: Jan  4 23:45:16 2023 GMT
            Not After : Jan  4 23:45:16 2024 GMT
        Subject: C=ES, ST=PO, O=GETTSEG2022 FdPR PBC JBS, CN=Cliente2-Auth
        Subject Public Key Info:
            Public Key Algorithm: rsaEncryption
                Public-Key: (2048 bit)
                Modulus:
                    00:d6:d1:7e:43:28:aa:dc:ae:00:13:76:be:59:1c:
                    49:b1:99:9c:4b:f7:40:a0:40:46:39:3f:c4:8c:2b:
                    ad:cd:b9:30:a1:1e:5a:24:28:5e:1d:43:23:4e:96:
                    32:f4:7c:a7:55:98:87:79:23:a6:cd:83:5d:f9:81:
                    ed:1c:37:78:8a:07:cb:62:35:6b:dc:8e:98:7a:82:
                    0b:a8:b9:64:06:07:62:13:97:da:41:51:7d:09:c2:
                    f0:eb:57:fe:71:8f:81:8a:4e:4b:96:cc:46:f4:47:
                    86:a4:ad:20:6b:d7:49:ac:23:11:1a:b9:54:36:d2:
                    94:8d:2f:b5:ea:5c:57:5f:b5:43:0d:14:75:e5:bf:
                    e5:60:69:cb:90:4a:6d:d0:ba:0c:74:f3:81:8e:97:
                    ef:cd:c6:b0:eb:80:10:96:32:ef:50:f1:67:13:98:
                    b0:e7:aa:df:a8:af:35:26:c6:8b:0d:55:c2:e2:dc:
                    ae:ac:a2:df:fe:cc:a8:19:69:89:21:8a:69:d4:11:
                    8b:67:c0:e3:de:b6:03:ac:8d:49:16:74:7f:72:36:
                    42:12:a3:3b:29:e6:c9:dc:ae:d3:d4:12:80:66:36:
                    a7:f1:33:81:ea:10:5c:43:1c:67:6f:0d:08:7e:4c:
                    7e:5b:f3:d1:9a:9d:aa:9f:35:7e:30:c0:81:2c:4c:
                    04:05
                Exponent: 65537 (0x10001)
        X509v3 extensions:
            X509v3 Authority Key Identifier: 
                93:70:F2:C7:47:61:00:C5:5B:D4:7A:C4:80:94:E1:87:8B:6E:8F:B1
            X509v3 Basic Constraints: critical
                CA:FALSE
            X509v3 Extended Key Usage: 
                TLS Web Client Authentication
            X509v3 Subject Key Identifier: 
                EF:C6:64:B2:88:51:EA:D5:E0:62:4A:7E:F2:39:84:27:AC:7D:2F:D2
    Signature Algorithm: sha256WithRSAEncryption
    Signature Value:
        34:cd:33:03:92:9e:90:2d:9e:58:c0:f6:6e:87:4b:0b:ce:c3:
        d5:0a:29:e6:82:5a:49:df:c6:6b:30:4d:f1:42:87:74:23:b2:
        94:65:70:2f:9c:65:fc:f4:84:30:8a:35:3a:fe:2d:e8:74:20:
        12:1e:5d:43:8e:ed:ec:37:54:fc:1d:dd:42:52:11:04:1a:15:
        25:65:f0:51:a8:42:67:7e:bf:24:f0:88:7b:f8:8c:00:e9:cc:
        67:81:6b:bf:f3:b9:5d:a1:d0:37:d3:9d:9a:d6:8a:2a:83:8a:
        b1:4b:c7:c2:a3:08:08:93:59:89:c5:68:fb:b6:9f:c5:aa:4a:
        4b:0c:d9:b1:8a:7d:e8:bf:7e:31:cc:d9:62:10:48:58:94:bf:
        73:1c:c0:d4:a2:a4:e7:bf:ad:fc:41:4a:36:ac:a3:b7:eb:0b:
        8b:46:90:a3:1b:d4:45:1b:7c:39:b6:0d:a1:d0:e8:16:8a:f9:
        d2:ae:bf:25:76:79:36:5b:ec:ed:74:f1:a9:f9:3b:7a:89:89:
        3c:bb:0b:46:cc:a4:6d:5f:71:c4:39:67:ea:c8:88:04:38:eb:
        68:ed:ad:76:45:3b:83:c4:d5:a4:9c:8e:63:b4:cc:31:d9:b3:
        8d:53:34:08:77:c9:25:b9:c4:3f:af:b7:f9:4e:b4:47:b5:a8:
        cb:69:20:63:62:16:d3:27:2e:ab:8c:61:0c:20:8a:6a:8d:f0:
        03:d4:2a:2c:cf:06:98:27:6f:39:fa:a2:fd:32:42:61:a9:cb:
        fd:5c:1d:b7:38:67:0b:91:26:15:4d:74:aa:a9:ab:6e:4a:f0:
        3c:34:15:c8:82:b4:e5:05:7f:ca:f3:71:84:ac:fb:87:f8:56:
        48:34:43:c7:7d:0b:70:c0:7d:3a:b6:6d:81:a9:ce:c7:5e:da:
        9d:b1:72:b5:43:8b:b1:1c:f6:ea:a6:12:de:12:e4:de:85:61:
        4f:cb:d8:2d:c8:8a:41:8b:d2:9d:1f:32:50:b1:2b:7f:08:89:
        2d:00:dc:64:90:9e:19:c1:52:d0:cf:fd:43:a2:06:bd:8e:73:
        00:47:9a:9f:5d:2d:3f:a4:25:89:a3:95:a5:32:df:ef:3c:7c:
        1a:07:e0:8e:51:43:37:3f:20:7b:ba:85:0c:3d:48:71:e9:92:
        bb:f3:1d:32:83:3c:41:58:97:6a:87:bd:9d:eb:34:f2:ad:2e:
        06:1b:cf:c3:34:26:8e:6e:b4:0b:19:70:ca:32:01:68:cf:a3:
        f5:d2:42:61:0d:8a:03:f9:bf:ac:c1:1d:6d:b3:82:5d:f3:f3:
        51:05:ac:5f:ff:3b:67:f6:46:b9:3d:74:d4:88:07:b6:b6:46:
        4b:02:65:6b:e1:a5:db:a8
-----BEGIN CERTIFICATE-----
MIIEejCCAmKgAwIBAgICEAMwDQYJKoZIhvcNAQELBQAwRDELMAkGA1UEBhMCRVMx
HDAaBgNVBAoME0p1YW4geSBGZXJuYW5kbyBTRUcxFzAVBgNVBAMMDkNsaWVudGUt
U1VCIENBMB4XDTIzMDEwNDIzNDUxNloXDTI0MDEwNDIzNDUxNlowVTELMAkGA1UE
BhMCRVMxCzAJBgNVBAgMAlBPMSEwHwYDVQQKDBhHRVRUU0VHMjAyMiBGZFBSIFBC
QyBKQlMxFjAUBgNVBAMMDUNsaWVudGUyLUF1dGgwggEiMA0GCSqGSIb3DQEBAQUA
A4IBDwAwggEKAoIBAQDW0X5DKKrcrgATdr5ZHEmxmZxL90CgQEY5P8SMK63NuTCh
HlokKF4dQyNOljL0fKdVmId5I6bNg135ge0cN3iKB8tiNWvcjph6gguouWQGB2IT
l9pBUX0JwvDrV/5xj4GKTkuWzEb0R4akrSBr10msIxEauVQ20pSNL7XqXFdftUMN
FHXlv+VgacuQSm3Qugx084GOl+/NxrDrgBCWMu9Q8WcTmLDnqt+orzUmxosNVcLi
3K6sot/+zKgZaYkhimnUEYtnwOPetgOsjUkWdH9yNkISozsp5sncrtPUEoBmNqfx
M4HqEFxDHGdvDQh+TH5b89GanaqfNX4wwIEsTAQFAgMBAAGjZTBjMB8GA1UdIwQY
MBaAFJNw8sdHYQDFW9R6xICU4YeLbo+xMAwGA1UdEwEB/wQCMAAwEwYDVR0lBAww
CgYIKwYBBQUHAwIwHQYDVR0OBBYEFO/GZLKIUerV4GJKfvI5hCesfS/SMA0GCSqG
SIb3DQEBCwUAA4ICAQA0zTMDkp6QLZ5YwPZuh0sLzsPVCinmglpJ38ZrME3xQod0
I7KUZXAvnGX89IQwijU6/i3odCASHl1Dju3sN1T8Hd1CUhEEGhUlZfBRqEJnfr8k
8Ih7+IwA6cxngWu/87ldodA3052a1ooqg4qxS8fCowgIk1mJxWj7tp/FqkpLDNmx
in3ov34xzNliEEhYlL9zHMDUoqTnv638QUo2rKO36wuLRpCjG9RFG3w5tg2h0OgW
ivnSrr8ldnk2W+ztdPGp+Tt6iYk8uwtGzKRtX3HEOWfqyIgEOOto7a12RTuDxNWk
nI5jtMwx2bONUzQId8klucQ/r7f5TrRHtajLaSBjYhbTJy6rjGEMIIpqjfAD1Cos
zwaYJ285+qL9MkJhqcv9XB23OGcLkSYVTXSqqatuSvA8NBXIgrTlBX/K83GErPuH
+FZINEPHfQtwwH06tm2Bqc7HXtqdsXK1Q4uxHPbqphLeEuTehWFPy9gtyIpBi9Kd
HzJQsSt/CIktANxkkJ4ZwVLQz/1Doga9jnMAR5qfXS0/pCWJo5WlMt/vPHwaB+CO
UUM3PyB7uoUMPUhx6ZK78x0ygzxBWJdqh72d6zTyrS4GG8/DNCaObrQLGXDKMgFo
z6P10kJhDYoD+b+swR1ts4Jd8/NRBaxf/ztn9ka5PXTUiAe2tkZLAmVr4aXbqA==
-----END CERTIFICATE-----
