Certificate:
    Data:
        Version: 3 (0x2)
        Serial Number: 4100 (0x1004)
        Signature Algorithm: sha256WithRSAEncryption
        Issuer: C=ES, O=Juan y Fernando SEG, CN=Servidor-SUB CA
        Validity
            Not Before: Dec 22 22:40:35 2022 GMT
            Not After : Dec 22 22:40:35 2023 GMT
        Subject: C=ES, ST=PO, O=Fernando Seguridad, CN=Servidor Encrypt
        Subject Public Key Info:
            Public Key Algorithm: rsaEncryption
                Public-Key: (2048 bit)
                Modulus:
                    00:b2:ce:4c:99:97:17:77:0f:f3:20:44:b7:db:1d:
                    46:ab:cd:fd:be:9e:23:d8:6a:24:3a:a4:fc:cc:82:
                    99:8e:d5:84:9c:96:36:cd:38:5c:6e:a1:99:89:ec:
                    ce:88:cb:a4:84:29:ec:78:45:68:2b:20:f8:ca:3d:
                    fc:17:da:2d:18:79:a8:a1:8c:3f:b0:e9:c4:81:b9:
                    3a:96:1a:c5:df:e2:b6:fb:da:1c:95:28:08:fe:35:
                    98:18:26:9e:b3:41:12:bf:40:39:22:f6:70:93:0c:
                    0a:be:05:be:02:cc:75:93:06:88:6f:97:9f:54:35:
                    3e:05:06:0c:77:5f:3e:38:46:cd:2e:1b:32:a4:01:
                    65:6e:51:f9:28:b4:96:82:3d:f8:36:60:ea:58:30:
                    2b:68:10:11:37:63:8a:4f:a0:43:1e:82:7a:c9:41:
                    1c:0e:31:25:37:b8:db:38:c9:d6:ef:59:b8:32:d1:
                    0f:4c:3d:08:eb:f5:89:83:b6:af:1b:80:24:96:6f:
                    63:18:76:57:80:ce:ab:48:36:c0:f0:75:98:07:b6:
                    4d:61:0a:f7:ed:6f:cb:9f:35:4e:c6:64:3e:e1:95:
                    4e:cd:b3:30:c8:73:ce:d5:1c:e7:3c:92:98:fb:1a:
                    a0:a9:25:19:28:d0:f4:5b:d0:95:e1:1c:91:b8:c2:
                    88:01
                Exponent: 65537 (0x10001)
        X509v3 extensions:
            X509v3 Authority Key Identifier: 
                ED:16:C6:9B:67:BC:18:92:BC:A7:06:15:43:81:50:F7:90:BC:07:C2
            X509v3 Basic Constraints: critical
                CA:FALSE
            X509v3 Extended Key Usage: 
                TLS Web Client Authentication, TLS Web Server Authentication
            X509v3 Key Usage: critical
                Digital Signature, Key Encipherment
            X509v3 Subject Key Identifier: 
                AD:44:AF:8D:17:F3:67:30:2A:90:93:E2:E7:FB:83:80:2A:E0:B6:2D
    Signature Algorithm: sha256WithRSAEncryption
    Signature Value:
        60:ca:c4:e9:c9:94:24:80:2c:cc:d4:b5:a5:c2:5e:95:55:04:
        9c:02:ff:c0:04:32:f5:1c:12:90:17:77:a3:be:54:67:da:90:
        69:b7:02:09:0c:03:f9:63:de:45:b4:6a:96:57:63:2f:d2:16:
        52:9b:3c:60:8b:89:7c:fc:9b:45:af:0f:f2:c6:45:a0:a3:66:
        c1:30:ae:31:3b:7e:dc:9b:a8:1a:ef:52:00:63:7e:83:99:8b:
        cc:b8:01:86:32:a0:3b:52:c9:c2:53:27:b2:4d:b6:4a:b6:fb:
        99:58:5a:d9:d9:33:46:75:0b:8e:0b:3e:c9:5e:1c:fb:08:95:
        2e:e9:ba:98:2e:9f:02:09:79:27:8b:09:21:fc:b3:69:75:16:
        02:8e:15:65:88:1c:3e:44:be:a4:57:da:de:9a:3e:98:68:11:
        fa:93:2f:58:cb:9f:48:c3:e2:bf:2a:66:d2:68:cc:fa:d3:38:
        e3:8c:01:37:b6:30:4f:5d:f6:59:2d:47:63:f7:d1:fd:dc:f8:
        38:49:e2:96:36:e5:32:46:92:65:b7:02:0d:1b:b6:62:35:d2:
        70:c6:38:e2:d9:ed:53:2b:9c:c6:97:b1:b1:37:98:f2:fa:3e:
        78:b2:c0:0b:da:53:b1:e7:71:85:d8:41:b4:ea:54:28:b0:c8:
        88:9e:ad:93:13:d6:00:ca:d9:a9:bf:93:3f:e3:99:ac:9f:c5:
        3b:f0:b3:36:48:62:42:e3:9f:09:7f:1f:88:61:36:96:5f:94:
        ad:ea:20:4d:e1:4b:c8:60:61:de:f8:64:e3:79:cf:bf:56:a5:
        32:12:d5:7b:ba:90:77:96:4c:c0:27:3f:c7:af:e1:e8:eb:0a:
        ae:09:e9:f5:cd:79:79:d6:cf:fc:c9:3b:10:9b:03:c1:75:c0:
        04:48:2b:be:30:2d:a3:a3:cc:fd:8a:9a:20:dc:a3:ce:e4:b7:
        ba:7f:ec:80:fb:ab:6f:6f:d8:43:82:24:0b:bb:6f:91:19:e3:
        f7:22:b1:5d:d0:fe:a6:c0:d2:53:ad:c5:cc:0b:00:e3:fd:2e:
        70:d7:8b:e1:9d:63:57:fc:99:ee:e2:cb:f6:5d:00:14:5a:4f:
        8c:d4:82:13:7a:be:cf:e2:e9:04:84:e9:8b:04:80:61:76:f4:
        97:63:28:5c:7b:9f:40:1b:d2:e3:2f:05:32:e9:97:30:be:6b:
        b6:31:38:86:9b:92:76:72:ad:e0:88:12:91:cf:ae:d3:86:97:
        d6:53:20:76:f6:b5:7b:e4:88:1b:f4:a7:47:ca:80:9f:ec:46:
        0b:15:7b:38:a4:7f:d0:3f:a0:ae:00:dc:0f:e5:d8:ed:11:2b:
        f8:2c:eb:9f:91:76:82:ca
-----BEGIN CERTIFICATE-----
MIIEkjCCAnqgAwIBAgICEAQwDQYJKoZIhvcNAQELBQAwRTELMAkGA1UEBhMCRVMx
HDAaBgNVBAoME0p1YW4geSBGZXJuYW5kbyBTRUcxGDAWBgNVBAMMD1NlcnZpZG9y
LVNVQiBDQTAeFw0yMjEyMjIyMjQwMzVaFw0yMzEyMjIyMjQwMzVaMFIxCzAJBgNV
BAYTAkVTMQswCQYDVQQIDAJQTzEbMBkGA1UECgwSRmVybmFuZG8gU2VndXJpZGFk
MRkwFwYDVQQDDBBTZXJ2aWRvciBFbmNyeXB0MIIBIjANBgkqhkiG9w0BAQEFAAOC
AQ8AMIIBCgKCAQEAss5MmZcXdw/zIES32x1Gq839vp4j2GokOqT8zIKZjtWEnJY2
zThcbqGZiezOiMukhCnseEVoKyD4yj38F9otGHmooYw/sOnEgbk6lhrF3+K2+9oc
lSgI/jWYGCaes0ESv0A5IvZwkwwKvgW+Asx1kwaIb5efVDU+BQYMd18+OEbNLhsy
pAFlblH5KLSWgj34NmDqWDAraBARN2OKT6BDHoJ6yUEcDjElN7jbOMnW71m4MtEP
TD0I6/WJg7avG4Aklm9jGHZXgM6rSDbA8HWYB7ZNYQr37W/LnzVOxmQ+4ZVOzbMw
yHPO1RznPJKY+xqgqSUZKND0W9CV4RyRuMKIAQIDAQABo38wfTAfBgNVHSMEGDAW
gBTtFsabZ7wYkrynBhVDgVD3kLwHwjAMBgNVHRMBAf8EAjAAMB0GA1UdJQQWMBQG
CCsGAQUFBwMCBggrBgEFBQcDATAOBgNVHQ8BAf8EBAMCBaAwHQYDVR0OBBYEFK1E
r40X82cwKpCT4uf7g4Aq4LYtMA0GCSqGSIb3DQEBCwUAA4ICAQBgysTpyZQkgCzM
1LWlwl6VVQScAv/ABDL1HBKQF3ejvlRn2pBptwIJDAP5Y95FtGqWV2Mv0hZSmzxg
i4l8/JtFrw/yxkWgo2bBMK4xO37cm6ga71IAY36DmYvMuAGGMqA7UsnCUyeyTbZK
tvuZWFrZ2TNGdQuOCz7JXhz7CJUu6bqYLp8CCXkniwkh/LNpdRYCjhVliBw+RL6k
V9remj6YaBH6ky9Yy59Iw+K/KmbSaMz60zjjjAE3tjBPXfZZLUdj99H93Pg4SeKW
NuUyRpJltwING7ZiNdJwxjji2e1TK5zGl7GxN5jy+j54ssAL2lOx53GF2EG06lQo
sMiInq2TE9YAytmpv5M/45msn8U78LM2SGJC458Jfx+IYTaWX5St6iBN4UvIYGHe
+GTjec+/VqUyEtV7upB3lkzAJz/Hr+Ho6wquCen1zXl51s/8yTsQmwPBdcAESCu+
MC2jo8z9ipog3KPO5Le6f+yA+6tvb9hDgiQLu2+RGeP3IrFd0P6mwNJTrcXMCwDj
/S5w14vhnWNX/Jnu4sv2XQAUWk+M1IITer7P4ukEhOmLBIBhdvSXYyhce59AG9Lj
LwUy6Zcwvmu2MTiGm5J2cq3giBKRz67ThpfWUyB29rV75Igb9KdHyoCf7EYLFXs4
pH/QP6CuANwP5djtESv4LOufkXaCyg==
-----END CERTIFICATE-----
