Certificate:
    Data:
        Version: 3 (0x2)
        Serial Number: 4097 (0x1001)
        Signature Algorithm: sha256WithRSAEncryption
        Issuer: C=ES, O=Juan y Fernando SEG, CN=Servidor-SUB CA
        Validity
            Not Before: Dec 24 00:11:45 2022 GMT
            Not After : Dec 24 00:11:45 2023 GMT
        Subject: C=ES, ST=PO, O=Seguridad Fernando Juan y Pedro, CN=Server-Auth
        Subject Public Key Info:
            Public Key Algorithm: rsaEncryption
                Public-Key: (2048 bit)
                Modulus:
                    00:d6:8a:7d:6a:21:30:0f:1a:38:85:44:b3:d5:8b:
                    ef:78:f0:3c:5f:2d:3f:09:24:b8:b5:e0:8d:88:ac:
                    87:67:46:12:1a:bc:8a:17:c2:e0:35:7c:3f:ba:0c:
                    34:6f:84:c1:e2:36:9c:9b:61:41:76:ec:8d:f4:4b:
                    82:a6:2a:5d:e3:b9:10:d0:cc:33:d6:1a:86:36:c3:
                    08:ea:cc:e0:91:07:f2:87:95:4a:1f:fa:4c:2f:75:
                    ef:2d:7a:6f:79:c5:27:12:da:ae:d7:7c:a6:97:65:
                    f4:c9:e0:36:16:bf:39:8f:df:0b:dd:7c:07:6d:4e:
                    3b:29:01:64:b3:33:7e:de:62:b2:b0:48:7c:0d:73:
                    be:e9:c4:6c:2d:a0:ec:2e:50:e7:4b:59:b1:aa:2f:
                    b1:81:c0:64:9d:ad:70:46:c8:fe:6e:32:c0:84:ea:
                    81:6d:bf:90:0e:3b:ee:3f:91:55:be:46:58:61:12:
                    2c:73:7d:f2:95:0b:80:c4:37:14:89:ab:0d:e5:c2:
                    1c:f9:5d:ac:55:8e:83:b0:59:41:48:3a:1f:d1:77:
                    3f:e5:6c:d8:f3:0a:e6:4b:73:9c:03:6d:0e:9b:d0:
                    0e:34:07:46:a3:e2:df:8e:03:ab:f1:d0:01:1c:57:
                    e4:6f:3b:64:f3:d4:d1:36:49:c3:42:7d:c8:c3:30:
                    f0:75
                Exponent: 65537 (0x10001)
        X509v3 extensions:
            X509v3 Authority Key Identifier: 
                ED:16:C6:9B:67:BC:18:92:BC:A7:06:15:43:81:50:F7:90:BC:07:C2
            X509v3 Basic Constraints: critical
                CA:FALSE
            X509v3 Extended Key Usage: 
                TLS Web Client Authentication
            X509v3 Subject Key Identifier: 
                EC:20:BA:44:AA:39:72:11:43:B0:38:66:0C:4C:20:CA:48:86:95:45
    Signature Algorithm: sha256WithRSAEncryption
    Signature Value:
        64:ed:f8:71:9d:db:70:a1:34:43:f8:af:3e:76:76:71:da:75:
        ac:55:07:6d:7c:1e:c3:25:fb:2b:83:5a:67:c1:f2:03:3a:1a:
        4b:47:ed:40:73:b6:65:32:60:b6:7d:a9:2c:40:04:7c:52:1f:
        cb:a4:c5:2f:6e:60:4b:24:cd:a7:65:4f:9d:fd:33:71:bb:93:
        18:d9:e0:2f:1a:29:c3:15:a0:0d:1c:40:28:76:87:39:8d:1d:
        28:72:d0:38:cc:2e:3c:be:7d:fc:be:c0:b2:f0:1c:87:9b:4c:
        af:18:16:7c:74:9c:ba:34:db:4a:51:a4:5d:51:20:ec:89:d9:
        8c:9d:74:4a:8f:f8:39:50:0e:e4:cc:c1:19:0a:3f:bb:b5:90:
        e5:44:2d:83:a6:f7:8e:f5:fc:35:4f:98:11:f3:05:a8:af:84:
        77:f9:3a:33:da:06:2b:b5:31:33:e4:25:2e:62:55:e4:c5:4a:
        d9:e6:7a:a1:71:93:a7:cd:26:3a:a2:54:8b:80:fe:4c:d4:46:
        65:ce:9d:94:9e:a6:29:9d:98:bd:50:23:e7:8f:d6:b9:51:b2:
        34:2d:7d:fe:68:12:0e:58:74:91:55:f7:88:43:bc:97:a7:22:
        ec:23:14:9b:a5:bb:f2:5d:b3:4d:eb:7b:1d:3b:29:c4:a9:c6:
        fb:e7:f1:7b:44:43:f0:1b:89:00:82:4b:3d:f6:95:7d:5b:b6:
        cc:ea:6c:47:3c:f4:b8:d8:c3:90:73:a8:b6:30:cd:e6:38:4d:
        f4:56:40:70:7b:38:3b:4a:62:ea:7d:0b:a8:e1:21:bd:a5:58:
        7b:e3:79:91:fd:94:f2:67:7c:ed:9a:c3:92:ab:08:9f:f4:32:
        0c:a7:d6:9d:01:1c:8e:de:5a:99:80:d9:77:06:c2:f2:14:06:
        2a:4e:a1:e6:b9:0b:31:ab:c4:90:b4:7e:7a:67:a0:bc:5a:1e:
        74:d3:b3:08:11:b6:0b:3b:77:20:5b:d1:d2:60:c0:fd:c2:37:
        cb:21:2f:9f:f0:a2:81:d9:cf:6f:7a:1a:c6:b6:3d:f5:89:37:
        7f:6c:fa:c3:d4:1c:46:9d:dd:dc:bd:5e:78:6e:8e:25:b9:62:
        1a:e5:cb:76:cb:a6:2a:61:f8:b8:65:8d:97:63:05:1e:b1:ab:
        8b:dc:09:58:19:07:d1:6c:0c:8a:00:c0:e3:83:48:62:af:14:
        6d:03:88:4b:70:be:ba:74:13:1a:3f:bb:b5:a3:61:1f:02:85:
        be:20:5f:f0:a4:54:df:c9:72:f6:3a:ac:76:1d:3c:8c:8d:16:
        08:76:60:df:ce:c8:89:cd:28:5e:7d:33:cb:2b:0d:1f:c3:16:
        62:7f:bf:69:4c:1d:83:53
-----BEGIN CERTIFICATE-----
MIIEgDCCAmigAwIBAgICEAEwDQYJKoZIhvcNAQELBQAwRTELMAkGA1UEBhMCRVMx
HDAaBgNVBAoME0p1YW4geSBGZXJuYW5kbyBTRUcxGDAWBgNVBAMMD1NlcnZpZG9y
LVNVQiBDQTAeFw0yMjEyMjQwMDExNDVaFw0yMzEyMjQwMDExNDVaMFoxCzAJBgNV
BAYTAkVTMQswCQYDVQQIDAJQTzEoMCYGA1UECgwfU2VndXJpZGFkIEZlcm5hbmRv
IEp1YW4geSBQZWRybzEUMBIGA1UEAwwLU2VydmVyLUF1dGgwggEiMA0GCSqGSIb3
DQEBAQUAA4IBDwAwggEKAoIBAQDWin1qITAPGjiFRLPVi+948DxfLT8JJLi14I2I
rIdnRhIavIoXwuA1fD+6DDRvhMHiNpybYUF27I30S4KmKl3juRDQzDPWGoY2wwjq
zOCRB/KHlUof+kwvde8tem95xScS2q7XfKaXZfTJ4DYWvzmP3wvdfAdtTjspAWSz
M37eYrKwSHwNc77pxGwtoOwuUOdLWbGqL7GBwGSdrXBGyP5uMsCE6oFtv5AOO+4/
kVW+RlhhEixzffKVC4DENxSJqw3lwhz5XaxVjoOwWUFIOh/Rdz/lbNjzCuZLc5wD
bQ6b0A40B0aj4t+OA6vx0AEcV+RvO2Tz1NE2ScNCfcjDMPB1AgMBAAGjZTBjMB8G
A1UdIwQYMBaAFO0WxptnvBiSvKcGFUOBUPeQvAfCMAwGA1UdEwEB/wQCMAAwEwYD
VR0lBAwwCgYIKwYBBQUHAwIwHQYDVR0OBBYEFOwgukSqOXIRQ7A4ZgxMIMpIhpVF
MA0GCSqGSIb3DQEBCwUAA4ICAQBk7fhxndtwoTRD+K8+dnZx2nWsVQdtfB7DJfsr
g1pnwfIDOhpLR+1Ac7ZlMmC2faksQAR8Uh/LpMUvbmBLJM2nZU+d/TNxu5MY2eAv
GinDFaANHEAodoc5jR0octA4zC48vn38vsCy8ByHm0yvGBZ8dJy6NNtKUaRdUSDs
idmMnXRKj/g5UA7kzMEZCj+7tZDlRC2DpveO9fw1T5gR8wWor4R3+Toz2gYrtTEz
5CUuYlXkxUrZ5nqhcZOnzSY6olSLgP5M1EZlzp2UnqYpnZi9UCPnj9a5UbI0LX3+
aBIOWHSRVfeIQ7yXpyLsIxSbpbvyXbNN63sdOynEqcb75/F7REPwG4kAgks99pV9
W7bM6mxHPPS42MOQc6i2MM3mOE30VkBwezg7SmLqfQuo4SG9pVh743mR/ZTyZ3zt
msOSqwif9DIMp9adARyO3lqZgNl3BsLyFAYqTqHmuQsxq8SQtH56Z6C8Wh5007MI
EbYLO3cgW9HSYMD9wjfLIS+f8KKB2c9vehrGtj31iTd/bPrD1BxGnd3cvV54bo4l
uWIa5ct2y6YqYfi4ZY2XYwUesauL3AlYGQfRbAyKAMDjg0hirxRtA4hLcL66dBMa
P7u1o2EfAoW+IF/wpFTfyXL2Oqx2HTyMjRYIdmDfzsiJzShefTPLKw0fwxZif79p
TB2DUw==
-----END CERTIFICATE-----
