Certificate:
    Data:
        Version: 3 (0x2)
        Serial Number: 4101 (0x1005)
        Signature Algorithm: sha256WithRSAEncryption
        Issuer: C=ES, O=Juan y Fernando SEG, CN=Servidor-SUB CA
        Validity
            Not Before: Dec 22 22:40:59 2022 GMT
            Not After : Dec 22 22:40:59 2023 GMT
        Subject: C=ES, ST=PO, O=Fernando Seguridad, CN=Servidor-Sign
        Subject Public Key Info:
            Public Key Algorithm: rsaEncryption
                Public-Key: (2048 bit)
                Modulus:
                    00:b8:21:c7:3d:c5:4e:8e:f6:4a:36:65:fd:50:f8:
                    cf:d2:69:05:48:18:e2:ef:b9:c8:cb:af:d1:40:20:
                    a6:35:49:8e:80:73:7a:01:b7:a7:93:e3:ae:e0:6e:
                    02:0f:76:e4:a7:bb:bb:f9:e5:f1:4d:f5:48:09:8a:
                    95:1b:e8:ca:d0:99:fa:8c:28:79:86:d7:5f:7f:f4:
                    b7:16:56:7a:53:51:10:b1:c1:74:c6:19:93:83:22:
                    14:73:60:0e:00:a8:31:4d:56:35:62:c1:2f:28:c4:
                    f1:a2:4e:20:b1:78:63:df:8f:68:6c:70:50:20:ce:
                    13:0f:9b:00:4b:f2:ce:3f:e6:5a:dc:27:82:d2:ec:
                    cc:31:6b:7a:4c:a2:68:2e:d6:5a:28:c0:3a:f0:86:
                    95:f6:ef:ea:dd:79:57:19:80:2f:b3:08:f5:c9:c4:
                    f2:54:87:fe:31:48:4c:34:a3:cd:15:52:14:9e:dd:
                    17:d1:3b:cd:36:6b:61:f1:9c:79:11:af:52:16:13:
                    ca:19:37:4b:fe:3e:88:7c:ea:96:97:9b:5e:bc:cd:
                    4d:f1:af:9c:e4:a5:a7:77:aa:43:26:17:80:0b:de:
                    9f:c3:53:2d:61:87:69:0b:c3:64:ef:70:c9:60:7b:
                    6b:26:e5:db:81:16:cd:ca:27:de:aa:90:d0:89:65:
                    1d:2d
                Exponent: 65537 (0x10001)
        X509v3 extensions:
            X509v3 Authority Key Identifier: 
                ED:16:C6:9B:67:BC:18:92:BC:A7:06:15:43:81:50:F7:90:BC:07:C2
            X509v3 Basic Constraints: critical
                CA:FALSE
            X509v3 Extended Key Usage: 
                TLS Web Client Authentication, TLS Web Server Authentication
            X509v3 Key Usage: critical
                Digital Signature, Key Encipherment
            X509v3 Subject Key Identifier: 
                E4:57:34:3A:01:73:05:B8:B5:39:56:3B:BB:14:00:D0:49:14:20:22
    Signature Algorithm: sha256WithRSAEncryption
    Signature Value:
        34:ad:95:bf:1a:9e:a8:0a:f4:1f:fd:83:32:c9:9b:4a:f1:c6:
        cc:c7:b9:d8:1c:b3:e4:8d:49:8d:d8:4d:a4:55:b5:a0:4b:f4:
        14:a9:33:c2:b7:07:f7:e2:2f:d0:e8:fb:9b:12:3e:90:7e:6a:
        ab:47:65:3a:1a:5e:28:47:45:fe:79:4b:49:2a:6e:e4:bf:08:
        a3:eb:27:9a:ed:4d:5a:3c:88:bc:58:53:e1:18:32:61:4c:16:
        08:f6:82:3a:73:d4:0c:75:1b:28:f7:65:ae:8d:42:5f:91:58:
        54:dc:4c:f0:82:5b:75:fa:34:76:f1:c8:d0:08:67:ce:9f:5c:
        a0:7a:d5:72:6a:8b:8c:91:86:46:af:d1:4b:6b:c1:04:3f:7c:
        4e:ab:68:f6:60:a4:4f:93:a3:ed:78:67:e0:79:e3:52:9d:e0:
        25:59:a4:85:26:ee:25:52:92:6f:50:db:bd:06:70:ce:56:03:
        10:cf:04:02:64:70:11:44:b8:1b:1e:40:95:bc:38:55:c0:68:
        42:82:e2:c1:34:5f:55:12:68:4d:00:6b:f0:fc:ea:c8:f9:7e:
        17:90:16:42:61:37:db:b9:0a:a6:bf:ee:d6:19:31:2b:3d:94:
        d7:1e:9a:07:c0:c0:c7:60:cd:80:90:2b:b9:f5:05:07:3f:23:
        70:f0:38:a8:50:a9:0c:1b:ad:3e:0f:d9:f6:bf:f7:3c:38:e5:
        cd:b0:6a:f7:fa:2f:f0:7e:b9:12:f3:05:b6:74:b3:07:b3:ad:
        45:ad:c9:42:a0:6a:1b:c1:6c:a6:01:93:bc:05:51:ec:3f:0b:
        64:f0:73:04:4b:d2:89:11:18:ee:2a:21:65:e2:dd:62:e1:cc:
        97:ab:2e:83:b1:7b:48:00:0b:29:1f:d0:7c:61:f0:26:3b:6d:
        dd:6f:6f:ae:b9:6c:22:e4:a7:8b:6e:87:ac:23:56:ca:71:de:
        6d:5c:6c:a2:eb:fb:46:ee:8d:93:58:dd:5a:81:16:e2:57:e0:
        38:7b:38:ee:35:f5:8d:76:ab:49:67:dd:30:eb:02:d1:88:68:
        f8:15:a0:31:7e:df:09:2b:36:cf:e3:81:08:14:b0:0d:ad:48:
        57:b3:a0:e4:d1:65:19:c0:f4:76:e3:d1:c4:fd:46:64:af:34:
        d9:0d:91:5b:4f:44:f2:eb:a5:28:d0:54:53:c0:15:7e:6b:52:
        7d:3d:1b:45:66:c9:31:5a:12:2f:b5:8f:3f:c3:fc:18:eb:c0:
        b4:70:87:8c:98:24:da:9a:fd:d9:4e:30:72:7f:6a:18:26:55:
        ee:e3:ce:7f:76:a3:b3:e5:9d:6d:9c:88:53:45:94:98:b0:be:
        7f:35:a0:3e:59:84:d1:f7
-----BEGIN CERTIFICATE-----
MIIEjzCCAnegAwIBAgICEAUwDQYJKoZIhvcNAQELBQAwRTELMAkGA1UEBhMCRVMx
HDAaBgNVBAoME0p1YW4geSBGZXJuYW5kbyBTRUcxGDAWBgNVBAMMD1NlcnZpZG9y
LVNVQiBDQTAeFw0yMjEyMjIyMjQwNTlaFw0yMzEyMjIyMjQwNTlaME8xCzAJBgNV
BAYTAkVTMQswCQYDVQQIDAJQTzEbMBkGA1UECgwSRmVybmFuZG8gU2VndXJpZGFk
MRYwFAYDVQQDDA1TZXJ2aWRvci1TaWduMIIBIjANBgkqhkiG9w0BAQEFAAOCAQ8A
MIIBCgKCAQEAuCHHPcVOjvZKNmX9UPjP0mkFSBji77nIy6/RQCCmNUmOgHN6Aben
k+Ou4G4CD3bkp7u7+eXxTfVICYqVG+jK0Jn6jCh5htdff/S3FlZ6U1EQscF0xhmT
gyIUc2AOAKgxTVY1YsEvKMTxok4gsXhj349obHBQIM4TD5sAS/LOP+Za3CeC0uzM
MWt6TKJoLtZaKMA68IaV9u/q3XlXGYAvswj1ycTyVIf+MUhMNKPNFVIUnt0X0TvN
Nmth8Zx5Ea9SFhPKGTdL/j6IfOqWl5tevM1N8a+c5KWnd6pDJheAC96fw1MtYYdp
C8Nk73DJYHtrJuXbgRbNyifeqpDQiWUdLQIDAQABo38wfTAfBgNVHSMEGDAWgBTt
FsabZ7wYkrynBhVDgVD3kLwHwjAMBgNVHRMBAf8EAjAAMB0GA1UdJQQWMBQGCCsG
AQUFBwMCBggrBgEFBQcDATAOBgNVHQ8BAf8EBAMCBaAwHQYDVR0OBBYEFORXNDoB
cwW4tTlWO7sUANBJFCAiMA0GCSqGSIb3DQEBCwUAA4ICAQA0rZW/Gp6oCvQf/YMy
yZtK8cbMx7nYHLPkjUmN2E2kVbWgS/QUqTPCtwf34i/Q6PubEj6QfmqrR2U6Gl4o
R0X+eUtJKm7kvwij6yea7U1aPIi8WFPhGDJhTBYI9oI6c9QMdRso92WujUJfkVhU
3Ezwglt1+jR28cjQCGfOn1ygetVyaouMkYZGr9FLa8EEP3xOq2j2YKRPk6PteGfg
eeNSneAlWaSFJu4lUpJvUNu9BnDOVgMQzwQCZHARRLgbHkCVvDhVwGhCguLBNF9V
EmhNAGvw/OrI+X4XkBZCYTfbuQqmv+7WGTErPZTXHpoHwMDHYM2AkCu59QUHPyNw
8DioUKkMG60+D9n2v/c8OOXNsGr3+i/wfrkS8wW2dLMHs61FrclCoGobwWymAZO8
BVHsPwtk8HMES9KJERjuKiFl4t1i4cyXqy6DsXtIAAspH9B8YfAmO23db2+uuWwi
5KeLboesI1bKcd5tXGyi6/tG7o2TWN1agRbiV+A4ezjuNfWNdqtJZ90w6wLRiGj4
FaAxft8JKzbP44EIFLANrUhXs6Dk0WUZwPR249HE/UZkrzTZDZFbT0Ty66Uo0FRT
wBV+a1J9PRtFZskxWhIvtY8/w/wY68C0cIeMmCTamv3ZTjByf2oYJlXu485/dqOz
5Z1tnIhTRZSYsL5/NaA+WYTR9w==
-----END CERTIFICATE-----
