Certificate:
    Data:
        Version: 3 (0x2)
        Serial Number:
            30:f3:b7:9a:e8:5a:ce:3b:0f:a9:ed:eb:9c:f5:0a:27
        Signature Algorithm: sha256WithRSAEncryption
        Issuer: C=ES, O=Teleco, CN=Root CA
        Validity
            Not Before: Oct 10 13:53:42 2022 GMT
            Not After : Oct  7 13:53:42 2032 GMT
        Subject: C=ES, O=Teleco, CN=Root CA
        Subject Public Key Info:
            Public Key Algorithm: rsaEncryption
                Public-Key: (4096 bit)
                Modulus:
                    00:c2:ea:61:90:5c:78:4f:1a:05:89:20:1b:72:a2:
                    82:f8:9a:c8:be:31:a8:8b:a7:30:ff:01:76:26:b9:
                    49:da:85:00:2f:fd:6e:79:2f:e3:69:dd:a0:2d:a9:
                    34:69:77:69:87:3e:5e:2b:ea:b3:de:83:d2:0c:0c:
                    c2:9d:44:fc:6d:a3:ca:e2:a4:c3:5a:4f:eb:bc:22:
                    5e:a9:c4:03:31:8d:a3:2c:77:1a:4d:7c:c5:e0:f5:
                    c1:31:65:82:75:ab:0e:8a:e4:6b:93:99:3e:56:79:
                    bd:8f:c7:a3:f1:6e:c0:68:c0:66:f0:fd:3c:fd:0f:
                    ad:b2:b4:54:21:d5:44:b4:3e:61:9c:0e:6d:dd:cc:
                    b8:3a:15:3f:6d:8a:9e:81:96:31:36:91:9c:a1:4a:
                    f9:85:38:9c:e8:ca:f0:83:5d:bd:c4:e0:5b:1e:db:
                    c4:83:3a:59:6a:eb:ad:fb:fb:7e:bf:66:ad:0c:df:
                    56:70:7a:18:e8:74:0c:dc:8e:17:00:71:ea:af:33:
                    47:7f:42:21:97:3d:47:2f:7a:e3:ce:f2:04:df:66:
                    57:20:ab:a0:05:4d:cc:36:32:da:b0:0c:bb:ea:73:
                    37:aa:e0:ab:62:1a:70:57:ff:a7:97:f5:d5:bf:af:
                    00:40:9b:61:95:26:48:c4:47:57:c0:2f:20:cd:a1:
                    88:0b:a7:7d:06:21:43:eb:6e:b0:f1:ed:60:a1:6d:
                    76:8b:e6:d4:03:e8:b6:45:f7:9b:90:ad:d8:01:5c:
                    13:d3:57:d6:02:77:d9:13:36:24:86:c7:f4:52:e9:
                    3f:21:62:e3:57:a0:02:88:5c:89:ee:61:63:91:c7:
                    68:6b:cb:c8:d7:78:59:bc:01:f1:be:16:35:1f:e6:
                    76:d8:12:13:50:59:eb:46:7f:91:26:11:56:95:1f:
                    4c:b1:19:f2:53:01:9b:2c:1e:d0:e3:e3:61:72:cd:
                    2c:5c:4b:67:c3:63:f9:83:86:e9:6d:2c:14:1b:ce:
                    a3:5c:57:70:f0:70:e8:57:f9:72:8a:25:ce:1c:39:
                    f9:47:06:d4:44:1b:a0:25:2d:9b:3c:c8:6e:d3:87:
                    0c:d8:a0:bd:9f:e9:0e:cb:04:02:cc:7a:4a:d8:d1:
                    a5:e0:a7:7a:34:bf:02:43:04:80:24:6a:e6:37:70:
                    04:24:11:97:87:d6:24:c8:34:54:8b:2f:a9:94:64:
                    72:a2:f8:f4:43:fb:00:40:75:3d:71:a9:4d:f0:2e:
                    c2:e3:b7:9e:bc:17:8a:ef:36:1a:49:67:9f:11:e7:
                    f2:fa:cc:93:c8:26:b8:fc:97:d5:10:0a:27:66:90:
                    f0:a2:44:8b:14:b4:a0:45:bb:c8:17:7b:0c:b5:79:
                    0b:46:d3
                Exponent: 65537 (0x10001)
        X509v3 extensions:
            X509v3 Basic Constraints: critical
                CA:TRUE
            X509v3 Key Usage: critical
                Certificate Sign, CRL Sign
            X509v3 Subject Key Identifier: 
                12:2A:A9:BB:6A:50:14:39:FE:E6:9B:2F:3C:CE:C0:24:0B:03:F5:38
    Signature Algorithm: sha256WithRSAEncryption
    Signature Value:
        81:4b:23:ae:0f:49:6f:b3:c3:49:cc:31:e1:14:1c:8d:aa:00:
        d5:c8:6a:3b:92:b2:b3:01:c3:a1:50:7f:86:a9:cd:dd:12:0a:
        a1:d9:53:07:eb:2e:a5:56:31:74:f0:cf:45:c7:99:dc:85:2d:
        3f:f4:1a:35:e9:90:76:db:a9:1c:f8:de:ca:70:d2:d4:f1:6d:
        65:07:44:32:fa:e9:fb:75:2d:c5:36:4b:56:7c:00:1f:03:95:
        3f:0a:4d:16:42:8b:90:c3:aa:21:81:4b:99:40:1a:bc:fb:f1:
        45:97:0a:b2:3e:c0:dc:a5:14:be:db:7b:b6:cf:ac:fb:85:5b:
        6f:df:c4:9d:77:eb:e8:0f:61:be:93:7d:ba:e5:b1:1a:2a:a0:
        d7:a8:e1:99:d8:88:a8:1d:71:62:69:27:ac:72:2b:35:00:73:
        ea:ca:9f:0e:9b:e6:6a:ae:74:53:32:c6:b5:20:97:9b:90:d6:
        85:a0:2d:75:f1:bf:c1:ab:51:44:4c:49:9c:85:2f:d7:06:88:
        68:12:e8:76:99:35:8a:ea:7d:8e:ed:e0:e4:05:0e:e9:46:2e:
        39:e3:e0:d2:5c:7c:f9:e7:bc:14:0a:f3:7c:d0:ef:51:77:2f:
        4c:7f:2e:96:22:31:ab:0c:ec:eb:0e:6f:d8:65:8a:5d:0b:70:
        4e:f1:61:ed:fb:43:b3:0e:f9:df:b1:92:41:a9:55:09:73:b5:
        b5:ee:c5:7c:7e:df:9b:19:d7:31:44:71:79:b8:48:79:dd:33:
        c1:61:6b:98:30:61:64:f1:84:74:e6:3b:25:5d:eb:2c:15:19:
        c8:30:b9:63:42:8c:93:1c:4c:eb:cc:91:01:b7:80:a2:8b:ca:
        ef:31:db:e4:9d:00:8a:65:c6:77:ff:65:e9:4c:12:9d:b6:ed:
        c1:11:dc:f8:34:28:d4:60:5e:cc:47:ae:c9:ac:35:5d:e7:1d:
        e0:3b:36:49:1a:aa:4e:05:34:8b:6b:09:9c:fa:2e:26:f6:be:
        a3:c5:88:8d:1b:b3:df:fe:30:bf:05:67:7e:ea:0c:fe:c3:54:
        34:c1:c5:14:6a:d8:4c:f5:66:35:f1:41:ee:87:75:75:6a:a8:
        1c:68:01:5a:94:41:88:8e:fb:35:2f:34:3d:b0:13:29:cc:36:
        23:a2:b7:11:75:bb:ce:ad:81:50:f9:93:f0:71:4b:4f:2d:49:
        48:6f:16:a9:e8:b9:39:bc:42:5c:ea:c3:64:c3:f2:83:f3:7f:
        9a:b2:e3:40:20:86:9a:50:1f:e5:4d:7e:fa:09:cd:a7:1d:24:
        66:8c:c6:32:b2:a5:9f:90:5b:5b:d3:60:39:b9:84:a2:c7:ac:
        be:59:2f:c6:84:bd:d6:b0
-----BEGIN CERTIFICATE-----
MIIFLDCCAxSgAwIBAgIQMPO3muhazjsPqe3rnPUKJzANBgkqhkiG9w0BAQsFADAw
MQswCQYDVQQGEwJFUzEPMA0GA1UECgwGVGVsZWNvMRAwDgYDVQQDDAdSb290IENB
MB4XDTIyMTAxMDEzNTM0MloXDTMyMTAwNzEzNTM0MlowMDELMAkGA1UEBhMCRVMx
DzANBgNVBAoMBlRlbGVjbzEQMA4GA1UEAwwHUm9vdCBDQTCCAiIwDQYJKoZIhvcN
AQEBBQADggIPADCCAgoCggIBAMLqYZBceE8aBYkgG3KigviayL4xqIunMP8Bdia5
SdqFAC/9bnkv42ndoC2pNGl3aYc+Xivqs96D0gwMwp1E/G2jyuKkw1pP67wiXqnE
AzGNoyx3Gk18xeD1wTFlgnWrDorka5OZPlZ5vY/Ho/FuwGjAZvD9PP0PrbK0VCHV
RLQ+YZwObd3MuDoVP22KnoGWMTaRnKFK+YU4nOjK8INdvcTgWx7bxIM6WWrrrfv7
fr9mrQzfVnB6GOh0DNyOFwBx6q8zR39CIZc9Ry96487yBN9mVyCroAVNzDYy2rAM
u+pzN6rgq2IacFf/p5f11b+vAECbYZUmSMRHV8AvIM2hiAunfQYhQ+tusPHtYKFt
dovm1APotkX3m5Ct2AFcE9NX1gJ32RM2JIbH9FLpPyFi41egAohcie5hY5HHaGvL
yNd4WbwB8b4WNR/mdtgSE1BZ60Z/kSYRVpUfTLEZ8lMBmywe0OPjYXLNLFxLZ8Nj
+YOG6W0sFBvOo1xXcPBw6Ff5coolzhw5+UcG1EQboCUtmzzIbtOHDNigvZ/pDssE
Asx6StjRpeCnejS/AkMEgCRq5jdwBCQRl4fWJMg0VIsvqZRkcqL49EP7AEB1PXGp
TfAuwuO3nrwXiu82GklnnxHn8vrMk8gmuPyX1RAKJ2aQ8KJEixS0oEW7yBd7DLV5
C0bTAgMBAAGjQjBAMA8GA1UdEwEB/wQFMAMBAf8wDgYDVR0PAQH/BAQDAgEGMB0G
A1UdDgQWBBQSKqm7alAUOf7mmy88zsAkCwP1ODANBgkqhkiG9w0BAQsFAAOCAgEA
gUsjrg9Jb7PDScwx4RQcjaoA1chqO5KyswHDoVB/hqnN3RIKodlTB+supVYxdPDP
RceZ3IUtP/QaNemQdtupHPjeynDS1PFtZQdEMvrp+3UtxTZLVnwAHwOVPwpNFkKL
kMOqIYFLmUAavPvxRZcKsj7A3KUUvtt7ts+s+4Vbb9/EnXfr6A9hvpN9uuWxGiqg
16jhmdiIqB1xYmknrHIrNQBz6sqfDpvmaq50UzLGtSCXm5DWhaAtdfG/watRRExJ
nIUv1waIaBLodpk1iup9ju3g5AUO6UYuOePg0lx8+ee8FArzfNDvUXcvTH8uliIx
qwzs6w5v2GWKXQtwTvFh7ftDsw7537GSQalVCXO1te7FfH7fmxnXMURxebhIed0z
wWFrmDBhZPGEdOY7JV3rLBUZyDC5Y0KMkxxM68yRAbeAoovK7zHb5J0AimXGd/9l
6UwSnbbtwRHc+DQo1GBezEeuyaw1Xecd4Ds2SRqqTgU0i2sJnPouJva+o8WIjRuz
3/4wvwVnfuoM/sNUNMHFFGrYTPVmNfFB7od1dWqoHGgBWpRBiI77NS80PbATKcw2
I6K3EXW7zq2BUPmT8HFLTy1JSG8Wqei5ObxCXOrDZMPyg/N/mrLjQCCGmlAf5U1+
+gnNpx0kZozGMrKln5BbW9NgObmEosesvlkvxoS91rA=
-----END CERTIFICATE-----
