Certificate:
    Data:
        Version: 3 (0x2)
        Serial Number:
            30:f3:b7:9a:e8:5a:ce:3b:0f:a9:ed:eb:9c:f5:0a:28
        Signature Algorithm: sha256WithRSAEncryption
        Issuer: C=ES, O=Teleco, CN=Root CA
        Validity
            Not Before: Oct 10 14:22:06 2022 GMT
            Not After : Oct  7 14:22:06 2032 GMT
        Subject: C=ES, O=Teleco, CN=server_TLS
        Subject Public Key Info:
            Public Key Algorithm: rsaEncryption
                Public-Key: (2048 bit)
                Modulus:
                    00:ed:01:05:9c:ff:b1:b6:29:ed:da:ac:3d:3e:68:
                    bb:f6:8e:8c:a5:25:55:10:e8:8d:e2:5f:7a:95:6e:
                    93:41:52:bb:4a:e7:1b:c8:ba:34:75:10:b7:d6:37:
                    66:3d:4e:77:5b:6d:01:98:39:4c:f8:52:5a:7e:87:
                    46:43:5c:98:d1:59:3e:b9:8c:64:82:7a:fe:f4:b0:
                    32:0b:59:a4:0f:0d:4a:b1:90:f7:01:3a:8e:fc:d9:
                    38:78:60:05:85:50:90:65:a9:40:cd:15:20:6b:df:
                    5f:7a:ee:89:95:d7:1f:7e:6b:e1:7d:37:af:67:d1:
                    e5:8f:48:71:75:7b:9f:af:6d:5c:58:08:c4:82:34:
                    18:e8:40:c0:91:69:a5:e3:11:7e:b5:2f:d7:de:66:
                    f9:a0:9f:81:de:b1:34:0f:fc:ad:21:71:00:7f:46:
                    ae:7f:a0:8b:31:fe:ca:e7:7b:ad:68:fc:0e:00:a1:
                    20:78:76:37:79:f8:92:4f:a1:d0:49:d5:5c:fc:70:
                    9f:b8:19:31:c8:c4:4f:fc:fb:ca:f9:94:3a:24:16:
                    2a:3c:91:b9:43:dc:e6:e6:12:56:44:a4:9a:d5:6f:
                    42:eb:d4:d1:50:40:b5:a0:a7:f2:69:00:2b:63:e9:
                    50:37:14:7f:bc:cb:97:dd:3a:93:d5:5c:67:42:13:
                    af:ef
                Exponent: 65537 (0x10001)
        X509v3 extensions:
            Authority Information Access: 
                CA Issuers - URI:http://root-ca.teleco.es/root-ca.crt
                OCSP - URI:http://ocsp.root-ca.teleco.es:9080
            X509v3 Authority Key Identifier: 
                12:2A:A9:BB:6A:50:14:39:FE:E6:9B:2F:3C:CE:C0:24:0B:03:F5:38
            X509v3 Basic Constraints: critical
                CA:FALSE
            X509v3 CRL Distribution Points: 
                Full Name:
                  URI:http://root-ca.teleco.es/root-ca.crl
            X509v3 Extended Key Usage: 
                TLS Web Client Authentication, TLS Web Server Authentication
            X509v3 Key Usage: critical
                Digital Signature, Key Encipherment
            X509v3 Subject Key Identifier: 
                2E:06:62:62:D0:4F:98:C8:CD:25:36:88:91:8B:39:F6:72:F5:35:72
    Signature Algorithm: sha256WithRSAEncryption
    Signature Value:
        9e:2b:93:56:d2:f5:58:bc:9e:7e:3b:37:24:1e:ca:00:11:1e:
        e7:70:44:55:86:74:67:4f:ad:41:16:b3:a1:0c:a0:67:e0:aa:
        0c:0b:66:7f:ab:53:29:3b:99:75:7c:4b:49:01:2d:d1:2b:00:
        5f:98:14:98:cc:e2:ff:80:4f:b8:b8:f6:ed:53:18:72:52:19:
        08:b1:ed:bf:49:c4:bf:25:b0:35:da:21:75:ed:c0:f9:0b:dc:
        e4:88:f0:0b:24:bb:d6:87:0e:26:84:66:27:6a:ad:03:ce:39:
        e6:fd:9e:eb:fa:0d:a3:ea:ae:e3:7b:4d:c1:6e:9d:16:9c:d6:
        50:37:1d:30:8b:90:25:52:99:d4:97:6d:73:40:ce:90:d0:40:
        35:25:a0:ac:7c:3d:73:db:36:c4:10:6e:9b:e6:6d:43:00:28:
        5b:db:1e:aa:d2:27:b2:cc:10:ba:66:86:b9:86:03:82:ed:e3:
        f6:ca:82:6b:e6:1a:b5:7c:64:1e:25:55:d7:a6:c3:fc:7e:c1:
        f8:91:0c:9b:9b:d6:e8:4c:f6:c6:99:36:3d:c7:83:b0:65:d5:
        ec:4d:2f:4b:11:28:65:f1:e0:43:e9:4a:36:4b:63:5c:18:bb:
        8b:98:5c:2d:05:ee:90:69:8c:fd:7d:00:4b:ce:8d:eb:5a:aa:
        0a:72:0f:40:b3:75:c5:65:d5:89:a0:16:f1:6b:c0:80:a4:ee:
        bf:16:94:ca:09:38:86:8e:35:c9:78:f4:34:5a:3d:f3:bc:ba:
        36:ed:25:17:c4:88:4e:a5:06:47:cc:90:e4:27:62:46:e3:09:
        cb:b2:bd:90:f4:5a:f2:7f:ce:2e:ec:31:fa:61:f8:ea:6e:e2:
        b4:4e:bb:09:37:a1:e4:fd:7e:04:c3:49:ea:bb:82:c0:0f:53:
        a4:4d:21:53:2f:ee:0f:a2:84:33:64:8f:53:fe:81:53:c5:14:
        06:68:47:92:93:80:43:88:a0:de:cf:ff:45:d5:f1:8f:a5:7b:
        3b:cc:1b:a4:a6:0b:9d:4b:c3:0e:36:b5:80:69:fb:dc:2b:c9:
        bd:d2:34:41:0d:33:3c:0e:b3:24:91:b1:5f:8c:d0:6e:db:cb:
        01:0e:b5:80:c8:68:14:91:5e:46:51:c4:fc:d5:3d:12:8b:88:
        39:be:3a:a0:67:af:db:03:fd:e1:f6:91:a0:af:26:54:13:0d:
        eb:84:6b:00:da:c5:d2:f9:49:09:e4:b3:7d:67:89:e4:d9:e1:
        80:0c:ec:54:9b:40:50:bf:48:74:13:30:e8:d7:33:29:0d:59:
        f0:34:b7:7f:d0:96:b5:c4:2d:31:14:6a:62:d0:60:de:6d:dd:
        a0:d6:03:e6:9c:49:a2:fe
-----BEGIN CERTIFICATE-----
MIIFGTCCAwGgAwIBAgIQMPO3muhazjsPqe3rnPUKKDANBgkqhkiG9w0BAQsFADAw
MQswCQYDVQQGEwJFUzEPMA0GA1UECgwGVGVsZWNvMRAwDgYDVQQDDAdSb290IENB
MB4XDTIyMTAxMDE0MjIwNloXDTMyMTAwNzE0MjIwNlowMzELMAkGA1UEBhMCRVMx
DzANBgNVBAoMBlRlbGVjbzETMBEGA1UEAwwKc2VydmVyX1RMUzCCASIwDQYJKoZI
hvcNAQEBBQADggEPADCCAQoCggEBAO0BBZz/sbYp7dqsPT5ou/aOjKUlVRDojeJf
epVuk0FSu0rnG8i6NHUQt9Y3Zj1Od1ttAZg5TPhSWn6HRkNcmNFZPrmMZIJ6/vSw
MgtZpA8NSrGQ9wE6jvzZOHhgBYVQkGWpQM0VIGvfX3ruiZXXH35r4X03r2fR5Y9I
cXV7n69tXFgIxII0GOhAwJFppeMRfrUv195m+aCfgd6xNA/8rSFxAH9Grn+gizH+
yud7rWj8DgChIHh2N3n4kk+h0EnVXPxwn7gZMcjET/z7yvmUOiQWKjyRuUPc5uYS
VkSkmtVvQuvU0VBAtaCn8mkAK2PpUDcUf7zLl906k9VcZ0ITr+8CAwEAAaOCASow
ggEmMHAGCCsGAQUFBwEBBGQwYjAwBggrBgEFBQcwAoYkaHR0cDovL3Jvb3QtY2Eu
dGVsZWNvLmVzL3Jvb3QtY2EuY3J0MC4GCCsGAQUFBzABhiJodHRwOi8vb2NzcC5y
b290LWNhLnRlbGVjby5lczo5MDgwMB8GA1UdIwQYMBaAFBIqqbtqUBQ5/uabLzzO
wCQLA/U4MAwGA1UdEwEB/wQCMAAwNQYDVR0fBC4wLDAqoCigJoYkaHR0cDovL3Jv
b3QtY2EudGVsZWNvLmVzL3Jvb3QtY2EuY3JsMB0GA1UdJQQWMBQGCCsGAQUFBwMC
BggrBgEFBQcDATAOBgNVHQ8BAf8EBAMCBaAwHQYDVR0OBBYEFC4GYmLQT5jIzSU2
iJGLOfZy9TVyMA0GCSqGSIb3DQEBCwUAA4ICAQCeK5NW0vVYvJ5+OzckHsoAER7n
cERVhnRnT61BFrOhDKBn4KoMC2Z/q1MpO5l1fEtJAS3RKwBfmBSYzOL/gE+4uPbt
UxhyUhkIse2/ScS/JbA12iF17cD5C9zkiPALJLvWhw4mhGYnaq0Dzjnm/Z7r+g2j
6q7je03Bbp0WnNZQNx0wi5AlUpnUl21zQM6Q0EA1JaCsfD1z2zbEEG6b5m1DAChb
2x6q0ieyzBC6Zoa5hgOC7eP2yoJr5hq1fGQeJVXXpsP8fsH4kQybm9boTPbGmTY9
x4OwZdXsTS9LEShl8eBD6Uo2S2NcGLuLmFwtBe6QaYz9fQBLzo3rWqoKcg9As3XF
ZdWJoBbxa8CApO6/FpTKCTiGjjXJePQ0Wj3zvLo27SUXxIhOpQZHzJDkJ2JG4wnL
sr2Q9Fryf84u7DH6YfjqbuK0TrsJN6Hk/X4Ew0nqu4LAD1OkTSFTL+4PooQzZI9T
/oFTxRQGaEeSk4BDiKDez/9F1fGPpXs7zBukpgudS8MONrWAafvcK8m90jRBDTM8
DrMkkbFfjNBu28sBDrWAyGgUkV5GUcT81T0Si4g5vjqgZ6/bA/3h9pGgryZUEw3r
hGsA2sXS+UkJ5LN9Z4nk2eGADOxUm0BQv0h0EzDo1zMpDVnwNLd/0Ja1xC0xFGpi
0GDebd2g1gPmnEmi/g==
-----END CERTIFICATE-----
