Certificate:
    Data:
        Version: 3 (0x2)
        Serial Number: 4096 (0x1000)
        Signature Algorithm: sha256WithRSAEncryption
        Issuer: C=ES, O=Juan y Fernando SEG, CN=Servidor-SUB CA
        Validity
            Not Before: Dec 24 00:40:19 2022 GMT
            Not After : Dec 24 00:40:19 2023 GMT
        Subject: C=ES, ST=PO, O=Seguridad Fernando Juan Pedro, CN=Server-Sign
        Subject Public Key Info:
            Public Key Algorithm: rsaEncryption
                Public-Key: (2048 bit)
                Modulus:
                    00:ba:b0:90:de:a0:bf:58:72:68:82:d6:59:47:ee:
                    b0:c1:37:b9:c9:51:a4:3c:2d:14:91:ad:f1:62:48:
                    1b:c0:4d:fe:da:3f:19:c1:43:45:9a:54:73:3f:f6:
                    c6:f5:fd:b1:ad:d7:a9:e0:d6:3f:02:3c:8c:5d:dc:
                    26:95:bf:48:58:bc:b8:d3:4a:37:a7:d7:78:c4:9e:
                    a4:7b:73:41:da:2a:9f:70:83:c0:42:68:69:fe:7f:
                    42:ff:c1:ad:c0:9e:8b:15:34:f3:cd:af:64:d2:1c:
                    a8:36:71:f2:c2:aa:f9:ef:7b:17:2c:a5:93:07:3e:
                    e0:26:28:a7:4a:e7:a4:3d:cf:fc:db:a5:57:57:d0:
                    5c:2b:d4:92:58:9f:f5:16:6f:5d:45:d4:50:cf:ef:
                    08:52:8d:b6:53:0a:39:01:d4:3b:88:40:a0:09:08:
                    72:50:6e:8a:16:f7:76:46:ca:ac:9c:de:36:22:6b:
                    f0:bf:04:5d:83:09:f0:1f:dc:a6:c3:6e:26:8e:23:
                    f0:68:7d:12:10:3a:86:7a:e6:7d:59:7b:2b:b5:48:
                    45:06:2a:28:25:ed:05:c6:1c:21:d0:0f:fb:a1:30:
                    ff:01:4c:38:86:63:5b:50:bb:1a:9b:4a:a4:81:bf:
                    8d:35:2b:5d:bb:6a:e0:e5:59:bf:88:ab:eb:7a:c5:
                    31:0d
                Exponent: 65537 (0x10001)
        X509v3 extensions:
            X509v3 Authority Key Identifier: 
                ED:16:C6:9B:67:BC:18:92:BC:A7:06:15:43:81:50:F7:90:BC:07:C2
            X509v3 Basic Constraints: 
                CA:FALSE
            X509v3 Key Usage: 
                Digital Signature
            X509v3 Subject Key Identifier: 
                EE:1B:D5:D5:16:95:D8:B8:0C:77:A5:DC:9E:31:86:96:73:35:61:92
    Signature Algorithm: sha256WithRSAEncryption
    Signature Value:
        72:54:6a:64:70:a2:fd:3d:7f:b4:98:d8:9d:94:a3:35:2e:41:
        c6:de:20:de:24:dd:74:cb:1e:2c:83:e7:f8:a6:33:f6:70:cd:
        9f:e4:23:c9:dc:44:13:b4:db:50:68:8e:71:31:da:9c:1a:93:
        5b:8d:e7:74:8c:ac:18:53:76:9f:34:d3:5e:65:01:0d:06:e5:
        60:19:e8:cd:bf:6c:fd:23:1b:c8:1c:00:88:07:43:a6:2d:9d:
        e4:52:96:0c:9c:d8:46:ff:88:3f:99:44:b6:3e:fa:b3:1f:ea:
        42:82:fd:5e:ef:7c:ad:2f:a2:3d:df:36:c1:98:32:44:ba:55:
        d5:01:57:dc:db:b5:19:36:43:c7:1f:8b:bf:0d:d7:50:2a:0e:
        61:c1:ea:a1:ee:92:f2:70:61:30:09:3b:d3:f7:ce:75:1b:a7:
        44:a8:17:7d:47:8d:59:ea:6d:7c:08:50:6d:b7:59:f5:1d:36:
        d9:33:d6:b8:6d:72:86:c8:39:10:99:38:4c:54:97:6f:d2:90:
        71:79:9c:02:15:85:00:b3:24:c3:b2:c8:4a:25:de:4a:33:72:
        01:55:27:13:52:07:f9:6f:cc:2a:e9:33:fc:97:84:b8:a7:3b:
        37:a6:73:4a:66:fe:19:2e:13:21:9f:f5:ff:29:fd:9c:d1:1f:
        de:be:ac:31:67:7d:8e:20:f6:38:fe:e4:04:57:7d:93:8d:47:
        f8:06:a7:47:5d:51:1b:02:6f:6d:1e:c8:59:88:8c:09:81:ac:
        17:8d:7c:31:2c:d8:1b:b4:35:a6:4a:09:61:ca:90:26:61:30:
        f5:12:67:d1:8c:d1:fc:0f:5e:f5:4e:c7:28:34:28:c3:9f:f2:
        40:e4:fe:42:2d:a0:49:27:82:2f:8e:d9:36:a1:0a:48:ec:e3:
        5f:19:7f:cc:03:3a:43:b5:9d:2a:61:47:cd:b4:83:40:24:f4:
        44:6d:bb:dd:bd:a0:5b:7a:61:41:7b:18:9f:d1:87:c9:40:e2:
        74:46:5c:15:cd:39:32:38:7e:51:1d:ec:c7:e5:94:83:05:61:
        64:53:17:f9:dc:60:63:40:36:28:a6:55:b0:55:23:e5:d1:5f:
        39:0b:56:28:35:b9:c2:98:06:52:d2:89:ee:08:17:0e:0b:3c:
        43:5e:ba:61:a8:30:2f:23:ca:cc:36:c4:8e:5c:22:df:ba:c3:
        71:46:d3:d7:22:0d:c5:9c:b4:c2:28:0d:ee:2f:0c:44:42:38:
        e9:44:2f:60:36:41:a1:9c:ae:57:28:a7:0c:d4:f5:31:77:af:
        4e:b5:7f:e7:ba:75:e1:f7:b1:fc:d3:0f:d7:0a:3c:64:dd:dd:
        6d:4e:6b:87:87:5f:4d:1e
-----BEGIN CERTIFICATE-----
MIIEczCCAlugAwIBAgICEAAwDQYJKoZIhvcNAQELBQAwRTELMAkGA1UEBhMCRVMx
HDAaBgNVBAoME0p1YW4geSBGZXJuYW5kbyBTRUcxGDAWBgNVBAMMD1NlcnZpZG9y
LVNVQiBDQTAeFw0yMjEyMjQwMDQwMTlaFw0yMzEyMjQwMDQwMTlaMFgxCzAJBgNV
BAYTAkVTMQswCQYDVQQIDAJQTzEmMCQGA1UECgwdU2VndXJpZGFkIEZlcm5hbmRv
IEp1YW4gUGVkcm8xFDASBgNVBAMMC1NlcnZlci1TaWduMIIBIjANBgkqhkiG9w0B
AQEFAAOCAQ8AMIIBCgKCAQEAurCQ3qC/WHJogtZZR+6wwTe5yVGkPC0Uka3xYkgb
wE3+2j8ZwUNFmlRzP/bG9f2xrdep4NY/AjyMXdwmlb9IWLy400o3p9d4xJ6ke3NB
2iqfcIPAQmhp/n9C/8GtwJ6LFTTzza9k0hyoNnHywqr573sXLKWTBz7gJiinSuek
Pc/826VXV9BcK9SSWJ/1Fm9dRdRQz+8IUo22Uwo5AdQ7iECgCQhyUG6KFvd2Rsqs
nN42ImvwvwRdgwnwH9ymw24mjiPwaH0SEDqGeuZ9WXsrtUhFBiooJe0Fxhwh0A/7
oTD/AUw4hmNbULsam0qkgb+NNStdu2rg5Vm/iKvresUxDQIDAQABo1owWDAfBgNV
HSMEGDAWgBTtFsabZ7wYkrynBhVDgVD3kLwHwjAJBgNVHRMEAjAAMAsGA1UdDwQE
AwIHgDAdBgNVHQ4EFgQU7hvV1RaV2LgMd6XcnjGGlnM1YZIwDQYJKoZIhvcNAQEL
BQADggIBAHJUamRwov09f7SY2J2UozUuQcbeIN4k3XTLHiyD5/imM/ZwzZ/kI8nc
RBO021BojnEx2pwak1uN53SMrBhTdp80015lAQ0G5WAZ6M2/bP0jG8gcAIgHQ6Yt
neRSlgyc2Eb/iD+ZRLY++rMf6kKC/V7vfK0voj3fNsGYMkS6VdUBV9zbtRk2Q8cf
i78N11AqDmHB6qHukvJwYTAJO9P3znUbp0SoF31HjVnqbXwIUG23WfUdNtkz1rht
cobIORCZOExUl2/SkHF5nAIVhQCzJMOyyEol3kozcgFVJxNSB/lvzCrpM/yXhLin
Ozemc0pm/hkuEyGf9f8p/ZzRH96+rDFnfY4g9jj+5ARXfZONR/gGp0ddURsCb20e
yFmIjAmBrBeNfDEs2Bu0NaZKCWHKkCZhMPUSZ9GM0fwPXvVOxyg0KMOf8kDk/kIt
oEkngi+O2TahCkjs418Zf8wDOkO1nSphR820g0Ak9ERtu929oFt6YUF7GJ/Rh8lA
4nRGXBXNOTI4flEd7MfllIMFYWRTF/ncYGNANiimVbBVI+XRXzkLVig1ucKYBlLS
ie4IFw4LPENeumGoMC8jysw2xI5cIt+6w3FG09ciDcWctMIoDe4vDERCOOlEL2A2
QaGcrlcopwzU9TF3r061f+e6deH3sfzTD9cKPGTd3W1Oa4eHX00e
-----END CERTIFICATE-----
