Certificate:
    Data:
        Version: 3 (0x2)
        Serial Number: 4097 (0x1001)
        Signature Algorithm: sha256WithRSAEncryption
        Issuer: C=ES, O=Juan y Fernando SEG, CN=Servidor-SUB CA
        Validity
            Not Before: Dec 24 00:40:28 2022 GMT
            Not After : Dec 24 00:40:28 2023 GMT
        Subject: C=ES, ST=PO, O=Seguridad Fernando Juan Pedro, CN=Server-Auth
        Subject Public Key Info:
            Public Key Algorithm: rsaEncryption
                Public-Key: (2048 bit)
                Modulus:
                    00:b5:30:a3:1a:e3:8e:09:e7:f7:99:63:83:57:df:
                    92:af:72:ed:0c:48:d1:e2:13:3d:c3:e3:56:b2:33:
                    55:0e:80:60:56:78:d3:b7:9f:dc:c5:b3:ea:63:14:
                    14:00:24:4b:a1:31:37:0b:1c:42:8d:e8:85:d1:e1:
                    0f:6d:77:7a:9c:ec:52:8b:b9:37:11:50:c8:6e:8a:
                    61:67:77:94:a9:13:73:66:98:21:81:ab:46:c3:a4:
                    92:fc:1d:b2:49:73:df:2f:fc:37:3a:c3:c4:71:1f:
                    7b:ac:20:3f:1b:62:4d:df:b8:bc:00:b6:c3:1a:12:
                    ca:b4:0a:7a:18:f0:a6:1f:4e:57:dc:06:52:b4:f2:
                    ed:9f:65:27:e9:a8:fc:67:58:3b:53:33:82:80:21:
                    4e:7c:61:04:ed:f6:c1:cc:1a:3f:e6:50:0f:4e:d1:
                    2a:7f:39:62:f3:e4:b5:9d:24:08:d8:b4:91:57:7c:
                    df:f0:80:a6:a1:7f:99:63:8c:bf:8f:02:b2:29:72:
                    ac:00:99:eb:1e:52:f6:b2:3f:46:77:54:72:c2:d7:
                    e5:3a:7a:1e:54:c6:ff:a8:b3:0d:5e:9b:e3:c1:19:
                    26:02:7e:9c:6b:2e:0c:26:50:db:40:5b:ad:68:c6:
                    d1:8d:e5:fb:b6:61:02:99:81:29:0c:67:c5:5f:f4:
                    b6:e3
                Exponent: 65537 (0x10001)
        X509v3 extensions:
            X509v3 Authority Key Identifier: 
                ED:16:C6:9B:67:BC:18:92:BC:A7:06:15:43:81:50:F7:90:BC:07:C2
            X509v3 Basic Constraints: critical
                CA:FALSE
            X509v3 Extended Key Usage: 
                TLS Web Server Authentication
            X509v3 Subject Key Identifier: 
                3A:DE:19:39:76:B8:2C:5A:20:0B:5D:0F:5B:70:65:65:80:EA:32:72
    Signature Algorithm: sha256WithRSAEncryption
    Signature Value:
        3b:52:99:86:a7:70:20:7d:bf:50:56:5c:57:0e:e3:d0:b5:f3:
        ab:3a:de:27:f9:3e:e2:e1:b4:ee:33:c4:bf:df:40:50:2f:7f:
        bb:f3:e5:31:59:76:46:80:94:56:40:a4:7a:86:74:c8:4c:9e:
        70:a1:74:1f:58:7f:47:25:e6:1e:6f:7c:e7:1f:32:94:23:47:
        6b:d1:2f:f9:de:5e:29:71:df:1d:1e:95:0b:d8:99:69:55:eb:
        00:33:51:a3:40:31:93:15:07:27:68:88:8a:86:2f:f3:71:15:
        e9:11:3c:79:ba:32:9e:80:83:87:6b:00:62:ff:46:b1:85:f4:
        09:c9:a7:9a:08:cb:ad:a4:ed:bb:71:42:87:b5:8a:a2:da:0d:
        9f:45:90:33:4f:0c:cd:d1:a3:66:2a:78:5c:54:c3:17:05:e1:
        1e:43:59:6c:ed:9d:cb:d0:7f:4e:51:fa:25:85:8d:94:da:c2:
        ae:f4:59:f6:f6:07:63:fb:38:c3:40:aa:0f:3b:67:9f:06:0f:
        83:25:ef:77:0a:4a:fd:13:33:47:10:16:fa:7e:a0:6d:9b:49:
        1d:03:7d:03:a6:eb:dc:fb:ef:d3:7b:bb:1f:6a:65:49:3d:10:
        1d:8d:99:43:e5:b6:c7:c5:33:25:63:8c:b4:4d:22:be:37:cc:
        f5:1f:da:9c:98:65:d2:31:d8:52:15:ad:44:d0:07:70:aa:a0:
        24:fa:37:6c:3c:b6:b2:1f:ed:56:36:49:09:3f:c8:5d:e6:4f:
        79:4e:18:55:bb:b8:7b:d0:59:08:1c:92:ec:78:b7:5b:5b:06:
        97:8f:62:1e:51:9a:68:9f:0f:12:39:a7:e3:60:f6:97:02:41:
        b6:3c:17:08:68:01:23:70:82:9a:a0:db:7d:d5:22:7c:3c:8b:
        56:8f:42:56:f8:cc:44:75:97:c6:b6:c9:92:ac:52:07:22:a5:
        ed:b4:d3:80:74:ad:b5:80:0b:bf:b0:1f:67:cb:1d:de:c7:04:
        90:72:47:31:f2:4d:1d:f6:1f:c7:5c:2c:c0:79:67:e0:07:c9:
        ba:bf:73:41:80:18:23:b6:d0:c5:c5:1a:9e:69:ec:e7:37:f4:
        77:c7:4e:74:3b:7b:20:c6:50:76:16:4f:1c:ff:d9:68:e8:8f:
        04:e0:4b:38:8d:8c:7c:cd:3f:8d:79:fc:71:8f:3b:fb:ca:20:
        20:f9:f6:7c:e3:cb:51:f7:00:c3:89:0c:83:91:03:39:d2:ef:
        17:df:ab:71:7f:b7:12:15:3e:f5:10:2f:f3:3a:dd:39:8d:28:
        41:73:20:7d:04:1f:ce:95:bd:64:bc:f7:e2:24:45:7b:43:46:
        02:5a:4c:5b:f3:9a:fe:58
-----BEGIN CERTIFICATE-----
MIIEfjCCAmagAwIBAgICEAEwDQYJKoZIhvcNAQELBQAwRTELMAkGA1UEBhMCRVMx
HDAaBgNVBAoME0p1YW4geSBGZXJuYW5kbyBTRUcxGDAWBgNVBAMMD1NlcnZpZG9y
LVNVQiBDQTAeFw0yMjEyMjQwMDQwMjhaFw0yMzEyMjQwMDQwMjhaMFgxCzAJBgNV
BAYTAkVTMQswCQYDVQQIDAJQTzEmMCQGA1UECgwdU2VndXJpZGFkIEZlcm5hbmRv
IEp1YW4gUGVkcm8xFDASBgNVBAMMC1NlcnZlci1BdXRoMIIBIjANBgkqhkiG9w0B
AQEFAAOCAQ8AMIIBCgKCAQEAtTCjGuOOCef3mWODV9+Sr3LtDEjR4hM9w+NWsjNV
DoBgVnjTt5/cxbPqYxQUACRLoTE3CxxCjeiF0eEPbXd6nOxSi7k3EVDIbophZ3eU
qRNzZpghgatGw6SS/B2ySXPfL/w3OsPEcR97rCA/G2JN37i8ALbDGhLKtAp6GPCm
H05X3AZStPLtn2Un6aj8Z1g7UzOCgCFOfGEE7fbBzBo/5lAPTtEqfzli8+S1nSQI
2LSRV3zf8ICmoX+ZY4y/jwKyKXKsAJnrHlL2sj9Gd1RywtflOnoeVMb/qLMNXpvj
wRkmAn6cay4MJlDbQFutaMbRjeX7tmECmYEpDGfFX/S24wIDAQABo2UwYzAfBgNV
HSMEGDAWgBTtFsabZ7wYkrynBhVDgVD3kLwHwjAMBgNVHRMBAf8EAjAAMBMGA1Ud
JQQMMAoGCCsGAQUFBwMBMB0GA1UdDgQWBBQ63hk5drgsWiALXQ9bcGVlgOoycjAN
BgkqhkiG9w0BAQsFAAOCAgEAO1KZhqdwIH2/UFZcVw7j0LXzqzreJ/k+4uG07jPE
v99AUC9/u/PlMVl2RoCUVkCkeoZ0yEyecKF0H1h/RyXmHm985x8ylCNHa9Ev+d5e
KXHfHR6VC9iZaVXrADNRo0AxkxUHJ2iIioYv83EV6RE8eboynoCDh2sAYv9GsYX0
CcmnmgjLraTtu3FCh7WKotoNn0WQM08MzdGjZip4XFTDFwXhHkNZbO2dy9B/TlH6
JYWNlNrCrvRZ9vYHY/s4w0CqDztnnwYPgyXvdwpK/RMzRxAW+n6gbZtJHQN9A6br
3Pvv03u7H2plST0QHY2ZQ+W2x8UzJWOMtE0ivjfM9R/anJhl0jHYUhWtRNAHcKqg
JPo3bDy2sh/tVjZJCT/IXeZPeU4YVbu4e9BZCByS7Hi3W1sGl49iHlGaaJ8PEjmn
42D2lwJBtjwXCGgBI3CCmqDbfdUifDyLVo9CVvjMRHWXxrbJkqxSByKl7bTTgHSt
tYALv7AfZ8sd3scEkHJHMfJNHfYfx1wswHln4AfJur9zQYAYI7bQxcUanmns5zf0
d8dOdDt7IMZQdhZPHP/ZaOiPBOBLOI2MfM0/jXn8cY87+8ogIPn2fOPLUfcAw4kM
g5EDOdLvF9+rcX+3EhU+9RAv8zrdOY0oQXMgfQQfzpW9ZLz34iRFe0NGAlpMW/Oa
/lg=
-----END CERTIFICATE-----
