Certificate:
    Data:
        Version: 3 (0x2)
        Serial Number: 4098 (0x1002)
        Signature Algorithm: sha256WithRSAEncryption
        Issuer: C=ES, O=Juan y Fernando SEG, CN=Servidor-SUB CA
        Validity
            Not Before: Dec 24 00:13:26 2022 GMT
            Not After : Dec 24 00:13:26 2023 GMT
        Subject: C=ES, ST=PO, O=Seguridad Fernando Juan y Pedro, CN=Server-Sign
        Subject Public Key Info:
            Public Key Algorithm: rsaEncryption
                Public-Key: (2048 bit)
                Modulus:
                    00:be:9b:22:3a:0c:99:d6:21:c7:4e:46:22:1c:e4:
                    4e:cc:ea:51:42:a7:fc:5c:c1:c9:6d:32:1a:a5:b5:
                    df:7a:70:70:b8:5a:0f:cd:7a:ac:41:5e:66:be:f0:
                    ff:09:68:21:d2:3a:77:d5:48:d9:eb:82:19:4f:28:
                    2f:a0:f5:bb:6f:14:be:63:74:1f:2a:95:2e:e4:e9:
                    1e:15:55:34:10:f4:d0:75:41:90:d6:59:01:b7:d7:
                    80:1c:cb:3e:6f:0c:3d:d2:4b:fc:da:86:c5:39:ce:
                    84:e8:3a:4a:34:9c:f9:03:4c:45:1c:36:18:8e:73:
                    32:aa:77:ab:5c:31:82:46:99:f7:27:d8:8a:94:69:
                    50:ff:ca:35:95:b3:a3:2a:92:f7:87:b8:50:69:83:
                    58:58:95:c4:00:d1:78:08:30:3e:77:d2:2a:e1:2b:
                    aa:f5:c2:1f:00:84:c1:43:b5:4f:81:4b:2f:e5:e4:
                    d3:77:6f:fe:7f:80:01:81:1a:e2:5a:ee:f0:11:18:
                    87:94:6b:48:e9:6e:f8:77:a3:4b:41:db:c8:60:af:
                    d8:b7:a5:c7:fd:78:bc:28:f6:0e:d1:72:e1:69:2d:
                    97:6f:0d:9d:04:a0:c1:12:4e:34:78:47:e5:eb:01:
                    49:be:2e:b9:3f:6f:89:9d:a9:c3:27:eb:45:a3:79:
                    cb:bd
                Exponent: 65537 (0x10001)
        X509v3 extensions:
            X509v3 Authority Key Identifier: 
                ED:16:C6:9B:67:BC:18:92:BC:A7:06:15:43:81:50:F7:90:BC:07:C2
            X509v3 Basic Constraints: 
                CA:FALSE
            X509v3 Key Usage: 
                Digital Signature
            X509v3 Subject Key Identifier: 
                8B:8D:4D:6C:96:62:89:81:87:E4:62:8F:CD:60:09:8C:76:23:22:A2
    Signature Algorithm: sha256WithRSAEncryption
    Signature Value:
        61:b1:0a:a1:42:31:5b:96:22:d8:ed:28:38:7e:4d:ca:4b:b5:
        29:69:6a:1e:e0:76:ab:5c:4b:c2:f9:e3:88:88:49:e5:96:a7:
        dd:37:d2:a2:5e:9f:e3:b5:4e:ac:cb:77:91:9f:78:6b:99:11:
        f2:42:cb:2c:a0:79:ec:9c:68:6b:74:71:76:a7:59:20:b1:fa:
        be:2e:9a:3e:32:36:e4:f7:a0:11:50:61:15:94:67:3d:7c:9a:
        8f:e6:b0:98:00:6b:a3:57:f2:df:27:1c:e8:5a:66:ba:a6:10:
        0b:2b:83:0d:fa:4c:ee:13:82:40:38:9b:47:3e:1d:01:51:64:
        3e:f6:66:07:27:f2:5b:84:b9:db:59:b6:1a:5d:2c:67:f8:10:
        78:d6:b2:38:c9:33:ee:df:b3:a3:55:c8:36:43:68:5d:7a:e3:
        27:b4:70:72:6b:6d:07:ed:7f:dc:4a:78:78:e7:e7:76:0e:b0:
        04:4a:41:02:4b:96:a5:b0:9e:9e:1c:65:e7:8f:c4:14:44:ca:
        cf:a4:94:3b:f6:bc:61:d9:08:1e:04:b1:bd:e1:05:85:5f:8e:
        74:76:82:87:b9:70:59:7b:b6:8f:95:82:d4:31:7e:8a:0b:99:
        03:a4:eb:07:f9:df:38:23:9d:a1:92:48:fd:2c:84:5c:d6:ea:
        a5:ca:86:6d:aa:17:a4:da:7f:ae:05:b5:36:17:b5:d2:e0:b2:
        e5:99:1b:72:c8:7e:d5:23:02:8d:07:f7:5e:30:9e:79:d6:18:
        1d:38:d5:d3:04:a6:68:86:0b:58:25:b2:d0:88:3d:9c:5b:bb:
        57:25:d9:0e:68:68:83:b4:1f:ef:97:9d:3b:4a:5a:f4:f1:b3:
        a6:d3:5e:3f:38:0c:ec:fe:3c:86:a6:f1:85:43:13:1b:c1:cf:
        b4:92:6e:7d:9c:c6:a1:f8:50:6f:dd:be:fc:9f:75:c5:82:7b:
        42:2a:e7:af:a9:2f:41:fc:56:9d:eb:8c:e6:fe:1d:5b:43:1b:
        08:5c:9d:a8:a0:ed:6a:5c:84:b0:3e:af:7b:4d:03:89:d7:c6:
        a2:df:f5:d4:09:be:c5:4a:b6:6a:90:a6:d2:58:c3:ef:3a:68:
        a1:35:3a:48:bd:63:dd:54:e8:c3:b4:1e:7c:a3:c3:a2:eb:66:
        5d:2c:87:21:7f:a2:af:fd:15:9f:9a:b3:6d:84:ec:c0:dc:45:
        e4:79:d7:70:00:e3:c1:7b:ca:fb:56:9c:b7:41:9a:b7:30:aa:
        43:3b:fd:17:86:43:b2:5e:ae:2d:42:a5:ba:c2:f5:25:f1:88:
        98:ed:9e:43:e8:6b:62:d5:de:c3:6e:f4:cc:e4:1c:90:7d:9b:
        e2:b3:8f:6d:bb:1f:26:f4
-----BEGIN CERTIFICATE-----
MIIEdTCCAl2gAwIBAgICEAIwDQYJKoZIhvcNAQELBQAwRTELMAkGA1UEBhMCRVMx
HDAaBgNVBAoME0p1YW4geSBGZXJuYW5kbyBTRUcxGDAWBgNVBAMMD1NlcnZpZG9y
LVNVQiBDQTAeFw0yMjEyMjQwMDEzMjZaFw0yMzEyMjQwMDEzMjZaMFoxCzAJBgNV
BAYTAkVTMQswCQYDVQQIDAJQTzEoMCYGA1UECgwfU2VndXJpZGFkIEZlcm5hbmRv
IEp1YW4geSBQZWRybzEUMBIGA1UEAwwLU2VydmVyLVNpZ24wggEiMA0GCSqGSIb3
DQEBAQUAA4IBDwAwggEKAoIBAQC+myI6DJnWIcdORiIc5E7M6lFCp/xcwcltMhql
td96cHC4Wg/NeqxBXma+8P8JaCHSOnfVSNnrghlPKC+g9btvFL5jdB8qlS7k6R4V
VTQQ9NB1QZDWWQG314Acyz5vDD3SS/zahsU5zoToOko0nPkDTEUcNhiOczKqd6tc
MYJGmfcn2IqUaVD/yjWVs6MqkveHuFBpg1hYlcQA0XgIMD530irhK6r1wh8AhMFD
tU+BSy/l5NN3b/5/gAGBGuJa7vARGIeUa0jpbvh3o0tB28hgr9i3pcf9eLwo9g7R
cuFpLZdvDZ0EoMESTjR4R+XrAUm+Lrk/b4mdqcMn60Wjecu9AgMBAAGjWjBYMB8G
A1UdIwQYMBaAFO0WxptnvBiSvKcGFUOBUPeQvAfCMAkGA1UdEwQCMAAwCwYDVR0P
BAQDAgeAMB0GA1UdDgQWBBSLjU1slmKJgYfkYo/NYAmMdiMiojANBgkqhkiG9w0B
AQsFAAOCAgEAYbEKoUIxW5Yi2O0oOH5Nyku1KWlqHuB2q1xLwvnjiIhJ5Zan3TfS
ol6f47VOrMt3kZ94a5kR8kLLLKB57Jxoa3RxdqdZILH6vi6aPjI25PegEVBhFZRn
PXyaj+awmABro1fy3ycc6FpmuqYQCyuDDfpM7hOCQDibRz4dAVFkPvZmByfyW4S5
21m2Gl0sZ/gQeNayOMkz7t+zo1XINkNoXXrjJ7RwcmttB+1/3Ep4eOfndg6wBEpB
AkuWpbCenhxl54/EFETKz6SUO/a8YdkIHgSxveEFhV+OdHaCh7lwWXu2j5WC1DF+
iguZA6TrB/nfOCOdoZJI/SyEXNbqpcqGbaoXpNp/rgW1Nhe10uCy5Zkbcsh+1SMC
jQf3XjCeedYYHTjV0wSmaIYLWCWy0Ig9nFu7VyXZDmhog7Qf75edO0pa9PGzptNe
PzgM7P48hqbxhUMTG8HPtJJufZzGofhQb92+/J91xYJ7Qirnr6kvQfxWneuM5v4d
W0MbCFydqKDtalyEsD6ve00DidfGot/11Am+xUq2apCm0ljD7zpooTU6SL1j3VTo
w7QefKPDoutmXSyHIX+ir/0Vn5qzbYTswNxF5HnXcADjwXvK+1act0GatzCqQzv9
F4ZDsl6uLUKlusL1JfGImO2eQ+hrYtXew270zOQckH2b4rOPbbsfJvQ=
-----END CERTIFICATE-----
