Certificate:
    Data:
        Version: 3 (0x2)
        Serial Number: 4099 (0x1003)
        Signature Algorithm: sha256WithRSAEncryption
        Issuer: C=ES, O=Juan y Fernando SEG, CN=El Root CA
        Validity
            Not Before: Dec 22 22:20:02 2022 GMT
            Not After : Dec 22 22:20:02 2023 GMT
        Subject: C=ES, O=Juan y Fernando SEG, CN=Cliente-SUB CA
        Subject Public Key Info:
            Public Key Algorithm: rsaEncryption
                Public-Key: (4096 bit)
                Modulus:
                    00:a8:67:62:bc:e4:08:c6:f3:8a:a6:68:cb:42:1a:
                    12:5a:26:13:9d:e7:4c:f9:98:2a:84:b1:92:e5:9e:
                    7b:44:d6:cc:95:92:11:36:a4:9f:c7:83:f2:b8:bb:
                    92:1a:79:6b:c9:c5:cf:9c:34:cc:99:44:00:18:9d:
                    33:2d:ad:e2:17:f7:dd:d0:20:10:fd:ec:b9:d0:80:
                    d4:fc:a7:85:53:de:be:fe:04:4b:70:9d:07:e0:95:
                    fd:2b:c9:2b:e6:ff:ed:b3:aa:1a:d6:b2:2e:84:03:
                    b9:00:e9:4c:b7:ee:f4:1b:a8:7b:8c:86:d1:29:b2:
                    6b:3f:15:d9:74:6c:19:62:5b:91:f3:f0:7a:6c:af:
                    d5:49:ca:58:45:3e:da:63:44:6e:25:d5:af:6e:c5:
                    a7:0c:fd:e9:79:73:ed:1f:fe:85:7c:f6:12:0d:07:
                    a6:2d:e3:99:89:ec:44:da:f7:95:e7:ba:d6:d6:e3:
                    73:b2:85:bd:ac:c1:07:80:b0:b8:3a:29:d1:4c:27:
                    80:5c:94:e0:fb:34:a2:5a:9b:a6:8b:6c:02:57:58:
                    ce:56:99:7d:9f:3f:f0:02:f8:59:ec:3d:b5:c5:23:
                    82:80:16:a3:b8:45:89:5e:24:51:2b:59:36:04:7a:
                    9e:b1:ee:8e:06:4d:29:fd:60:62:54:bd:4f:e2:85:
                    e5:e7:0f:5a:6e:64:18:eb:45:f7:d3:71:c8:ef:01:
                    98:b3:8a:fc:e0:fe:36:e5:fc:19:90:4b:b9:f8:3b:
                    ae:b6:c2:bd:09:16:fe:cc:f5:55:47:62:ee:bf:01:
                    e1:56:5d:6a:26:2a:15:31:02:d8:9a:c5:9e:3a:7a:
                    5e:f4:d1:8b:50:2a:2e:33:ce:55:a9:85:fd:36:e2:
                    8c:ae:27:4c:75:59:ed:87:58:96:d0:04:1c:bd:9b:
                    94:c9:58:84:3c:7a:4c:e3:f2:ec:49:12:d8:3a:68:
                    ce:66:6b:04:d8:20:15:c9:8e:f9:a8:bb:94:6a:3f:
                    ee:90:6d:26:e3:c8:6a:f9:90:4a:e9:15:95:ed:ce:
                    6e:63:85:84:59:7d:4c:e6:da:1c:12:db:cc:cb:04:
                    45:7f:e2:5e:c5:4f:1f:3d:75:c3:18:ca:f4:61:51:
                    16:78:88:4d:45:14:a6:bf:ab:df:51:fc:99:85:c0:
                    81:e7:f1:bf:c8:fc:26:d8:03:6a:d4:29:15:f4:58:
                    48:15:71:39:cd:fe:9d:c1:72:17:b8:63:01:70:1a:
                    39:45:4e:e6:00:a1:4b:b5:cc:24:4d:78:14:5e:8a:
                    66:7b:47:b2:d2:e1:56:d0:52:aa:04:3b:70:3c:8b:
                    9e:2c:4e:45:2b:ff:b7:b3:d3:fa:02:ab:a2:cf:6f:
                    f4:40:f3
                Exponent: 65537 (0x10001)
        X509v3 extensions:
            X509v3 Authority Key Identifier: 
                57:65:79:CF:81:15:0A:7A:85:CC:4D:11:EE:5C:20:2A:2E:60:70:98
            X509v3 Basic Constraints: critical
                CA:TRUE, pathlen:0
            X509v3 Extended Key Usage: 
                TLS Web Client Authentication, TLS Web Server Authentication
            X509v3 Key Usage: critical
                Certificate Sign, CRL Sign
            X509v3 Subject Key Identifier: 
                93:70:F2:C7:47:61:00:C5:5B:D4:7A:C4:80:94:E1:87:8B:6E:8F:B1
    Signature Algorithm: sha256WithRSAEncryption
    Signature Value:
        86:8a:7e:fb:95:de:ae:53:a1:ca:3c:17:4c:bc:ca:25:1d:00:
        e7:2a:1b:45:47:32:70:76:87:52:2b:05:83:77:cb:0f:1b:3a:
        a5:2f:9f:53:a0:b1:c6:47:52:d4:6f:2c:12:82:ce:63:8d:4e:
        f8:42:14:1a:75:81:ec:a3:7d:92:e9:e8:83:f0:9d:7c:68:50:
        c8:38:03:09:c9:48:47:08:a9:0f:d6:3f:7e:da:95:28:2b:6b:
        80:2e:fe:c5:bd:f2:18:85:10:9b:ba:a1:8d:9d:2e:b9:4a:2b:
        d8:35:81:20:66:6c:80:a8:9b:9a:e3:2d:48:80:1b:7f:a3:6f:
        82:0a:e0:9e:6c:e7:1c:ac:4f:13:b1:fb:fb:5e:4f:ae:1d:72:
        3e:a6:93:c4:2f:71:1b:61:17:80:ab:18:a8:a5:ff:5e:e7:fb:
        07:bb:25:e1:5e:db:01:6a:6b:86:3b:9e:96:cb:e3:3d:04:0f:
        9a:6a:b9:6a:1d:28:bc:e9:4f:d0:81:e3:c2:50:49:d9:e0:a3:
        07:56:b5:46:51:b1:54:b3:93:ae:0f:74:3f:d6:23:a9:1b:08:
        fe:96:ed:9e:5e:15:c6:87:b6:75:3f:cd:56:d6:1e:ac:fc:1c:
        c9:9f:ce:7a:2c:e5:1a:72:76:f7:7b:39:a9:a2:99:56:bf:16:
        70:10:d2:a4:a1:87:8e:c2:19:f6:ed:c1:79:51:a4:21:2b:3c:
        dc:53:b5:7f:3c:28:ea:76:61:be:5c:de:24:a6:8c:67:fb:c6:
        92:4c:e4:02:4a:20:b3:33:4a:8c:0b:7a:0f:17:39:61:5e:ef:
        41:57:57:0d:fe:e1:d7:69:8a:96:9e:21:75:35:82:f6:e6:a1:
        ba:96:3b:9d:9d:fc:b3:4a:71:75:9f:c3:85:4d:fc:d2:fc:18:
        1e:c5:cf:fa:28:fb:84:2b:01:3e:c3:b4:80:14:a7:a8:2e:b2:
        37:66:e4:d5:f4:08:33:95:0b:03:0f:51:1f:3f:88:88:1b:20:
        79:64:a3:66:65:7a:0b:07:7c:6f:fd:3e:14:8c:3a:9e:cf:33:
        cb:c5:cd:4c:1f:b3:41:78:de:5a:dd:b4:88:50:5b:78:8a:21:
        b2:85:52:66:e9:57:9f:3e:6f:d6:d0:b3:f5:85:9b:5e:63:b7:
        74:bd:9a:bc:88:83:73:4a:86:ed:15:0c:65:0e:f3:a2:fc:c7:
        17:23:ae:5b:89:a9:24:d9:18:e5:4b:9a:90:f3:98:27:3f:eb:
        cf:ed:70:0d:de:92:68:c7:bd:5e:91:75:07:3a:43:f8:73:58:
        12:af:69:48:39:d0:eb:bb:29:10:a6:0e:3a:93:58:f2:98:f9:
        a7:9f:5d:3a:87:f0:99:17
-----BEGIN CERTIFICATE-----
MIIFhzCCA2+gAwIBAgICEAMwDQYJKoZIhvcNAQELBQAwQDELMAkGA1UEBhMCRVMx
HDAaBgNVBAoME0p1YW4geSBGZXJuYW5kbyBTRUcxEzARBgNVBAMMCkVsIFJvb3Qg
Q0EwHhcNMjIxMjIyMjIyMDAyWhcNMjMxMjIyMjIyMDAyWjBEMQswCQYDVQQGEwJF
UzEcMBoGA1UECgwTSnVhbiB5IEZlcm5hbmRvIFNFRzEXMBUGA1UEAwwOQ2xpZW50
ZS1TVUIgQ0EwggIiMA0GCSqGSIb3DQEBAQUAA4ICDwAwggIKAoICAQCoZ2K85AjG
84qmaMtCGhJaJhOd50z5mCqEsZLlnntE1syVkhE2pJ/Hg/K4u5IaeWvJxc+cNMyZ
RAAYnTMtreIX993QIBD97LnQgNT8p4VT3r7+BEtwnQfglf0rySvm/+2zqhrWsi6E
A7kA6Uy37vQbqHuMhtEpsms/Fdl0bBliW5Hz8Hpsr9VJylhFPtpjRG4l1a9uxacM
/el5c+0f/oV89hINB6Yt45mJ7ETa95XnutbW43Oyhb2swQeAsLg6KdFMJ4BclOD7
NKJam6aLbAJXWM5WmX2fP/AC+FnsPbXFI4KAFqO4RYleJFErWTYEep6x7o4GTSn9
YGJUvU/iheXnD1puZBjrRffTccjvAZizivzg/jbl/BmQS7n4O662wr0JFv7M9VVH
Yu6/AeFWXWomKhUxAtiaxZ46el700YtQKi4zzlWphf024oyuJ0x1We2HWJbQBBy9
m5TJWIQ8ekzj8uxJEtg6aM5mawTYIBXJjvmou5RqP+6QbSbjyGr5kErpFZXtzm5j
hYRZfUzm2hwS28zLBEV/4l7FTx89dcMYyvRhURZ4iE1FFKa/q99R/JmFwIHn8b/I
/CbYA2rUKRX0WEgVcTnN/p3Bche4YwFwGjlFTuYAoUu1zCRNeBReimZ7R7LS4VbQ
UqoEO3A8i54sTkUr/7ez0/oCq6LPb/RA8wIDAQABo4GGMIGDMB8GA1UdIwQYMBaA
FFdlec+BFQp6hcxNEe5cICouYHCYMBIGA1UdEwEB/wQIMAYBAf8CAQAwHQYDVR0l
BBYwFAYIKwYBBQUHAwIGCCsGAQUFBwMBMA4GA1UdDwEB/wQEAwIBBjAdBgNVHQ4E
FgQUk3Dyx0dhAMVb1HrEgJThh4tuj7EwDQYJKoZIhvcNAQELBQADggIBAIaKfvuV
3q5Toco8F0y8yiUdAOcqG0VHMnB2h1IrBYN3yw8bOqUvn1OgscZHUtRvLBKCzmON
TvhCFBp1geyjfZLp6IPwnXxoUMg4AwnJSEcIqQ/WP37alSgra4Au/sW98hiFEJu6
oY2dLrlKK9g1gSBmbICom5rjLUiAG3+jb4IK4J5s5xysTxOx+/teT64dcj6mk8Qv
cRthF4CrGKil/17n+we7JeFe2wFqa4Y7npbL4z0ED5pquWodKLzpT9CB48JQSdng
owdWtUZRsVSzk64PdD/WI6kbCP6W7Z5eFcaHtnU/zVbWHqz8HMmfznos5Rpydvd7
OamimVa/FnAQ0qShh47CGfbtwXlRpCErPNxTtX88KOp2Yb5c3iSmjGf7xpJM5AJK
ILMzSowLeg8XOWFe70FXVw3+4ddpipaeIXU1gvbmobqWO52d/LNKcXWfw4VN/NL8
GB7Fz/oo+4QrAT7DtIAUp6gusjdm5NX0CDOVCwMPUR8/iIgbIHlko2ZlegsHfG/9
PhSMOp7PM8vFzUwfs0F43lrdtIhQW3iKIbKFUmbpV58+b9bQs/WFm15jt3S9mryI
g3NKhu0VDGUO86L8xxcjrluJqSTZGOVLmpDzmCc/68/tcA3ekmjHvV6RdQc6Q/hz
WBKvaUg50Ou7KRCmDjqTWPKY+aefXTqH8JkX
-----END CERTIFICATE-----
