Certificate:
    Data:
        Version: 3 (0x2)
        Serial Number: 4097 (0x1001)
        Signature Algorithm: sha256WithRSAEncryption
        Issuer: C=ES, O=Juan y Fernando SEG, CN=El Root CA
        Validity
            Not Before: Dec 22 12:48:07 2022 GMT
            Not After : Dec 19 12:48:07 2032 GMT
        Subject: C=ES, O=Juan y Fernando SEG, CN=El Root CA
        Subject Public Key Info:
            Public Key Algorithm: rsaEncryption
                Public-Key: (4096 bit)
                Modulus:
                    00:8a:da:db:61:ed:38:13:0f:97:b5:8d:c7:38:0e:
                    29:d8:ff:ea:c2:eb:e9:ac:b3:6c:d5:1b:6e:0a:7e:
                    07:2b:18:44:d1:f3:e7:88:20:c7:ba:cc:ef:ba:e6:
                    48:60:67:47:f7:10:d3:7d:b0:52:4f:c6:5a:40:8b:
                    b5:48:13:19:8d:74:20:44:2d:c6:43:5c:33:84:b3:
                    61:5b:dd:ac:97:77:9a:31:3f:c6:a3:4b:69:ab:3e:
                    31:57:0e:80:d2:b4:44:20:99:36:b0:b4:64:71:11:
                    50:c1:02:5c:11:82:8d:f7:8b:63:45:5f:fa:08:21:
                    86:11:79:54:e6:e3:7a:00:76:d1:b9:07:1a:91:7b:
                    21:7a:dc:19:cc:75:04:a5:9f:ce:66:d1:25:25:2b:
                    76:8d:84:24:22:a7:33:28:63:e8:cb:ac:8b:30:c9:
                    e0:52:8d:01:86:e8:d7:23:35:17:3b:db:55:08:a5:
                    60:9e:49:f4:0b:2f:33:ca:af:ab:aa:ff:25:c2:6d:
                    db:93:eb:3a:be:60:29:0d:05:68:85:a1:08:c6:6b:
                    e4:a4:1d:c9:09:30:d6:7b:f9:e5:4d:c6:e3:9b:b0:
                    28:40:ab:fe:bc:da:39:e0:5e:0a:4e:84:db:7b:43:
                    e3:68:b6:83:9d:c6:b0:5c:13:f0:72:03:15:05:9e:
                    0f:e6:5c:85:0c:60:ac:3c:e3:c1:d3:1d:d7:32:34:
                    cc:9d:40:88:9e:db:02:29:a0:51:23:e4:a0:29:a3:
                    44:2f:7a:93:de:02:34:e9:c2:c3:ae:66:32:5c:2c:
                    db:0a:36:54:87:a4:d0:b6:13:02:12:8e:bd:92:0d:
                    53:6f:4f:4e:0e:d4:7c:49:87:49:9a:9c:c0:7e:2b:
                    12:5e:26:24:6a:64:ce:5e:f1:17:25:dc:91:f2:74:
                    a2:a8:8a:ef:46:42:a7:db:86:ac:63:ba:c2:1d:4f:
                    ed:19:bf:b8:f9:d8:43:e4:16:d4:fb:0d:91:8a:19:
                    dc:80:6b:e3:ff:04:d1:07:97:71:77:12:25:3d:a5:
                    ae:b2:a7:d1:27:19:28:90:f9:e4:76:19:58:23:25:
                    b8:2d:65:21:17:8b:58:fa:3a:31:be:1a:6f:6e:f7:
                    62:a9:a6:03:11:c5:ab:5f:58:97:05:d3:73:89:4c:
                    4f:b6:a5:79:dd:c4:e0:63:ca:43:53:bc:c7:03:31:
                    7a:4d:75:af:2b:cf:9d:3e:ed:41:e3:b0:51:c7:f0:
                    3a:95:2e:f8:e0:bf:91:e3:f7:f7:83:96:44:48:cc:
                    f0:99:f3:06:a4:81:63:2c:94:1d:91:3d:fc:63:a6:
                    1b:6d:17:fa:69:7d:d5:d5:e0:45:af:91:bf:dd:4d:
                    89:a3:c7
                Exponent: 65537 (0x10001)
        X509v3 extensions:
            X509v3 Basic Constraints: critical
                CA:TRUE
            X509v3 Key Usage: critical
                Certificate Sign, CRL Sign
            X509v3 Subject Key Identifier: 
                57:65:79:CF:81:15:0A:7A:85:CC:4D:11:EE:5C:20:2A:2E:60:70:98
    Signature Algorithm: sha256WithRSAEncryption
    Signature Value:
        44:1e:f6:b0:45:fd:e8:d4:89:da:13:43:88:15:1a:dc:0c:f4:
        bb:5b:24:e4:ed:dc:42:97:a6:4f:cf:9a:de:38:c3:5a:7a:dc:
        da:ca:6f:66:da:db:dd:1b:85:58:cb:97:3e:90:47:d2:fe:e8:
        71:9b:62:0d:02:2a:00:1d:f5:68:33:99:14:9c:fb:3a:b6:47:
        4d:dc:6d:f8:73:be:31:68:5c:8c:4c:85:bc:3f:0d:4e:ee:cd:
        97:1d:c4:09:7d:03:93:12:7b:6b:29:7f:df:22:6b:ce:b0:50:
        2b:b1:a5:62:4b:41:77:a6:f6:16:53:de:2f:59:f9:a7:af:fd:
        a4:d9:2b:fd:60:1d:4f:d5:23:04:60:31:74:f6:0e:2d:16:5f:
        e9:d1:15:49:c6:a0:d1:ec:2d:dd:c5:1c:38:b0:5b:e0:5f:50:
        cb:24:1d:47:3b:ce:ee:d4:92:a3:74:e8:54:7c:b4:cf:02:86:
        78:40:ab:6f:41:39:f0:35:2c:a9:d9:f8:73:27:c0:3f:e5:3a:
        12:49:9d:e0:db:6e:5b:7b:08:56:30:97:c5:c9:07:7e:50:df:
        ae:a9:79:5f:43:60:c8:55:79:da:8d:32:41:99:00:68:13:3c:
        41:98:12:99:b9:d7:18:c2:93:bf:41:6d:1f:7c:e9:6b:0f:2b:
        fe:4d:69:a2:23:74:49:4f:13:79:0b:30:60:ab:d8:e0:c8:b4:
        d0:5d:60:3b:d5:6f:69:66:ee:e6:fc:fb:f1:ee:9e:6f:f6:db:
        f6:9f:35:73:ef:1b:85:f8:e3:46:6a:8d:2a:65:22:91:b3:a0:
        94:46:74:2f:b7:ce:34:ec:bf:9d:21:83:75:8f:45:cb:d5:10:
        38:01:33:e7:52:9e:ca:32:30:6c:0c:8a:cf:fa:b2:e5:96:c0:
        5f:0c:b8:6a:3a:f3:49:0e:63:4a:ae:45:1e:ab:a9:c4:45:20:
        f5:32:10:d8:40:37:f8:96:93:6f:8d:12:c9:f3:62:6b:98:81:
        a3:ad:4f:a0:15:6a:29:82:62:7e:18:b3:4c:f2:d7:42:83:8a:
        7f:b9:2e:8c:57:ac:6e:98:d3:23:ea:14:8a:6f:ad:66:99:3b:
        27:92:ce:55:cb:6e:81:d7:96:f4:61:d5:a7:33:c4:47:90:1c:
        4e:0a:59:aa:bd:8e:aa:67:32:f5:80:53:1b:ad:7a:63:20:03:
        54:4c:e9:f3:4d:ec:2e:7e:62:ba:5a:73:05:6a:0c:09:bb:c4:
        96:85:37:53:31:99:f1:d6:25:1f:2b:15:e9:69:94:d4:dc:d3:
        21:fb:97:cc:84:41:d8:62:17:f6:00:6e:4c:6e:16:83:d6:43:
        2a:c8:5c:70:54:4c:a8:7c
-----BEGIN CERTIFICATE-----
MIIFPjCCAyagAwIBAgICEAEwDQYJKoZIhvcNAQELBQAwQDELMAkGA1UEBhMCRVMx
HDAaBgNVBAoME0p1YW4geSBGZXJuYW5kbyBTRUcxEzARBgNVBAMMCkVsIFJvb3Qg
Q0EwHhcNMjIxMjIyMTI0ODA3WhcNMzIxMjE5MTI0ODA3WjBAMQswCQYDVQQGEwJF
UzEcMBoGA1UECgwTSnVhbiB5IEZlcm5hbmRvIFNFRzETMBEGA1UEAwwKRWwgUm9v
dCBDQTCCAiIwDQYJKoZIhvcNAQEBBQADggIPADCCAgoCggIBAIra22HtOBMPl7WN
xzgOKdj/6sLr6ayzbNUbbgp+BysYRNHz54ggx7rM77rmSGBnR/cQ032wUk/GWkCL
tUgTGY10IEQtxkNcM4SzYVvdrJd3mjE/xqNLaas+MVcOgNK0RCCZNrC0ZHERUMEC
XBGCjfeLY0Vf+gghhhF5VObjegB20bkHGpF7IXrcGcx1BKWfzmbRJSUrdo2EJCKn
Myhj6MusizDJ4FKNAYbo1yM1FzvbVQilYJ5J9AsvM8qvq6r/JcJt25PrOr5gKQ0F
aIWhCMZr5KQdyQkw1nv55U3G45uwKECr/rzaOeBeCk6E23tD42i2g53GsFwT8HID
FQWeD+ZchQxgrDzjwdMd1zI0zJ1AiJ7bAimgUSPkoCmjRC96k94CNOnCw65mMlws
2wo2VIek0LYTAhKOvZINU29PTg7UfEmHSZqcwH4rEl4mJGpkzl7xFyXckfJ0oqiK
70ZCp9uGrGO6wh1P7Rm/uPnYQ+QW1PsNkYoZ3IBr4/8E0QeXcXcSJT2lrrKn0ScZ
KJD55HYZWCMluC1lIReLWPo6Mb4ab273YqmmAxHFq19YlwXTc4lMT7aled3E4GPK
Q1O8xwMxek11ryvPnT7tQeOwUcfwOpUu+OC/keP394OWREjM8JnzBqSBYyyUHZE9
/GOmG20X+ml91dXgRa+Rv91NiaPHAgMBAAGjQjBAMA8GA1UdEwEB/wQFMAMBAf8w
DgYDVR0PAQH/BAQDAgEGMB0GA1UdDgQWBBRXZXnPgRUKeoXMTRHuXCAqLmBwmDAN
BgkqhkiG9w0BAQsFAAOCAgEARB72sEX96NSJ2hNDiBUa3Az0u1sk5O3cQpemT8+a
3jjDWnrc2spvZtrb3RuFWMuXPpBH0v7ocZtiDQIqAB31aDOZFJz7OrZHTdxt+HO+
MWhcjEyFvD8NTu7Nlx3ECX0DkxJ7ayl/3yJrzrBQK7GlYktBd6b2FlPeL1n5p6/9
pNkr/WAdT9UjBGAxdPYOLRZf6dEVScag0ewt3cUcOLBb4F9QyyQdRzvO7tSSo3To
VHy0zwKGeECrb0E58DUsqdn4cyfAP+U6Ekmd4NtuW3sIVjCXxckHflDfrql5X0Ng
yFV52o0yQZkAaBM8QZgSmbnXGMKTv0FtH3zpaw8r/k1poiN0SU8TeQswYKvY4Mi0
0F1gO9VvaWbu5vz78e6eb/bb9p81c+8bhfjjRmqNKmUikbOglEZ0L7fONOy/nSGD
dY9Fy9UQOAEz51KeyjIwbAyKz/qy5ZbAXwy4ajrzSQ5jSq5FHqupxEUg9TIQ2EA3
+JaTb40SyfNia5iBo61PoBVqKYJifhizTPLXQoOKf7kujFesbpjTI+oUim+tZpk7
J5LOVctugdeW9GHVpzPER5AcTgpZqr2Oqmcy9YBTG616YyADVEzp803sLn5iulpz
BWoMCbvEloU3UzGZ8dYlHysV6WmU1NzTIfuXzIRB2GIX9gBuTG4Wg9ZDKshccFRM
qHw=
-----END CERTIFICATE-----
